
asm.bin:     file format binary


Disassembly of section .data:

0000000000000000 <.data>:
       0:	66 90                	xchg   ax,ax
       2:	66 90                	xchg   ax,ax
       4:	66 90                	xchg   ax,ax
       6:	66 90                	xchg   ax,ax
       8:	66 90                	xchg   ax,ax
       a:	66 90                	xchg   ax,ax
       c:	66 90                	xchg   ax,ax
       e:	66 90                	xchg   ax,ax
      10:	53                   	push   rbx
      11:	55                   	push   rbp
      12:	56                   	push   rsi
      13:	57                   	push   rdi
      14:	41 50                	push   r8
      16:	41 51                	push   r9
      18:	48 81 ec 84 35 00 00 	sub    rsp,0x3584
      1f:	45 31 c0             	xor    r8d,r8d
      22:	4c 8d 0c 24          	lea    r9,[rsp]
      26:	48 b9 01 00 00 00 00 	movabs rcx,0x1
      2d:	00 00 00 
      30:	48 ba 02 00 00 00 00 	movabs rdx,0x2
      37:	00 00 00 
      3a:	48 b8 00 20 00 00 00 	movabs rax,0x2000
      41:	00 00 00 
      44:	48 83 eb 00          	sub    rbx,0x0
      48:	48 83 ed 00          	sub    rbp,0x0
      4c:	48 83 ee 00          	sub    rsi,0x0
      50:	48 83 ef 00          	sub    rdi,0x0
      54:	49 83 e8 00          	sub    r8,0x0
      58:	49 83 e9 00          	sub    r9,0x0
      5c:	49 83 ea 00          	sub    r10,0x0
      60:	49 83 eb 00          	sub    r11,0x0
      64:	49 83 ec 00          	sub    r12,0x0
      68:	49 83 ed 00          	sub    r13,0x0
      6c:	49 83 ee 00          	sub    r14,0x0
      70:	49 83 ef 00          	sub    r15,0x0
      74:	90                   	nop
      75:	90                   	nop
      76:	90                   	nop
      77:	90                   	nop
      78:	90                   	nop
      79:	90                   	nop
      7a:	90                   	nop
      7b:	90                   	nop
      7c:	90                   	nop
      7d:	90                   	nop
      7e:	90                   	nop
      7f:	90                   	nop
      80:	48 8b 09             	mov    rcx,QWORD PTR [rcx]
      83:	41 8b 99 00 00 00 00 	mov    ebx,DWORD PTR [r9+0x0]
      8a:	41 8b 99 01 00 00 00 	mov    ebx,DWORD PTR [r9+0x1]
      91:	41 8b 99 02 00 00 00 	mov    ebx,DWORD PTR [r9+0x2]
      98:	41 8b 99 03 00 00 00 	mov    ebx,DWORD PTR [r9+0x3]
      9f:	41 8b 99 04 00 00 00 	mov    ebx,DWORD PTR [r9+0x4]
      a6:	41 8b 99 05 00 00 00 	mov    ebx,DWORD PTR [r9+0x5]
      ad:	41 8b 99 06 00 00 00 	mov    ebx,DWORD PTR [r9+0x6]
      b4:	41 8b 99 07 00 00 00 	mov    ebx,DWORD PTR [r9+0x7]
      bb:	41 8b 99 08 00 00 00 	mov    ebx,DWORD PTR [r9+0x8]
      c2:	41 8b 99 09 00 00 00 	mov    ebx,DWORD PTR [r9+0x9]
      c9:	41 8b 99 0a 00 00 00 	mov    ebx,DWORD PTR [r9+0xa]
      d0:	41 8b 99 0b 00 00 00 	mov    ebx,DWORD PTR [r9+0xb]
      d7:	41 8b 99 0c 00 00 00 	mov    ebx,DWORD PTR [r9+0xc]
      de:	41 8b 99 0d 00 00 00 	mov    ebx,DWORD PTR [r9+0xd]
      e5:	41 8b 99 0e 00 00 00 	mov    ebx,DWORD PTR [r9+0xe]
      ec:	41 8b 99 0f 00 00 00 	mov    ebx,DWORD PTR [r9+0xf]
      f3:	41 8b 99 10 00 00 00 	mov    ebx,DWORD PTR [r9+0x10]
      fa:	41 8b 99 11 00 00 00 	mov    ebx,DWORD PTR [r9+0x11]
     101:	41 8b 99 12 00 00 00 	mov    ebx,DWORD PTR [r9+0x12]
     108:	41 8b 99 13 00 00 00 	mov    ebx,DWORD PTR [r9+0x13]
     10f:	41 8b 99 14 00 00 00 	mov    ebx,DWORD PTR [r9+0x14]
     116:	41 8b 99 15 00 00 00 	mov    ebx,DWORD PTR [r9+0x15]
     11d:	41 8b 99 16 00 00 00 	mov    ebx,DWORD PTR [r9+0x16]
     124:	41 8b 99 17 00 00 00 	mov    ebx,DWORD PTR [r9+0x17]
     12b:	41 8b 99 18 00 00 00 	mov    ebx,DWORD PTR [r9+0x18]
     132:	41 8b 99 19 00 00 00 	mov    ebx,DWORD PTR [r9+0x19]
     139:	41 8b 99 1a 00 00 00 	mov    ebx,DWORD PTR [r9+0x1a]
     140:	41 8b 99 1b 00 00 00 	mov    ebx,DWORD PTR [r9+0x1b]
     147:	41 8b 99 1c 00 00 00 	mov    ebx,DWORD PTR [r9+0x1c]
     14e:	41 8b 99 1d 00 00 00 	mov    ebx,DWORD PTR [r9+0x1d]
     155:	41 8b 99 1e 00 00 00 	mov    ebx,DWORD PTR [r9+0x1e]
     15c:	48 8b 12             	mov    rdx,QWORD PTR [rdx]
     15f:	41 8b 99 1f 00 00 00 	mov    ebx,DWORD PTR [r9+0x1f]
     166:	41 8b 99 20 00 00 00 	mov    ebx,DWORD PTR [r9+0x20]
     16d:	41 8b 99 21 00 00 00 	mov    ebx,DWORD PTR [r9+0x21]
     174:	41 8b 99 22 00 00 00 	mov    ebx,DWORD PTR [r9+0x22]
     17b:	41 8b 99 23 00 00 00 	mov    ebx,DWORD PTR [r9+0x23]
     182:	41 8b 99 24 00 00 00 	mov    ebx,DWORD PTR [r9+0x24]
     189:	41 8b 99 25 00 00 00 	mov    ebx,DWORD PTR [r9+0x25]
     190:	41 8b 99 26 00 00 00 	mov    ebx,DWORD PTR [r9+0x26]
     197:	41 8b 99 27 00 00 00 	mov    ebx,DWORD PTR [r9+0x27]
     19e:	41 8b 99 28 00 00 00 	mov    ebx,DWORD PTR [r9+0x28]
     1a5:	41 8b 99 29 00 00 00 	mov    ebx,DWORD PTR [r9+0x29]
     1ac:	41 8b 99 2a 00 00 00 	mov    ebx,DWORD PTR [r9+0x2a]
     1b3:	41 8b 99 2b 00 00 00 	mov    ebx,DWORD PTR [r9+0x2b]
     1ba:	41 8b 99 2c 00 00 00 	mov    ebx,DWORD PTR [r9+0x2c]
     1c1:	41 8b 99 2d 00 00 00 	mov    ebx,DWORD PTR [r9+0x2d]
     1c8:	41 8b 99 2e 00 00 00 	mov    ebx,DWORD PTR [r9+0x2e]
     1cf:	41 8b 99 2f 00 00 00 	mov    ebx,DWORD PTR [r9+0x2f]
     1d6:	41 8b 99 30 00 00 00 	mov    ebx,DWORD PTR [r9+0x30]
     1dd:	41 8b 99 31 00 00 00 	mov    ebx,DWORD PTR [r9+0x31]
     1e4:	41 8b 99 32 00 00 00 	mov    ebx,DWORD PTR [r9+0x32]
     1eb:	41 8b 99 33 00 00 00 	mov    ebx,DWORD PTR [r9+0x33]
     1f2:	41 8b 99 34 00 00 00 	mov    ebx,DWORD PTR [r9+0x34]
     1f9:	41 8b 99 35 00 00 00 	mov    ebx,DWORD PTR [r9+0x35]
     200:	41 8b 99 36 00 00 00 	mov    ebx,DWORD PTR [r9+0x36]
     207:	41 8b 99 37 00 00 00 	mov    ebx,DWORD PTR [r9+0x37]
     20e:	41 8b 99 38 00 00 00 	mov    ebx,DWORD PTR [r9+0x38]
     215:	41 8b 99 39 00 00 00 	mov    ebx,DWORD PTR [r9+0x39]
     21c:	41 8b 99 3a 00 00 00 	mov    ebx,DWORD PTR [r9+0x3a]
     223:	41 8b 99 3b 00 00 00 	mov    ebx,DWORD PTR [r9+0x3b]
     22a:	41 8b 99 3c 00 00 00 	mov    ebx,DWORD PTR [r9+0x3c]
     231:	41 8b 99 3d 00 00 00 	mov    ebx,DWORD PTR [r9+0x3d]
     238:	48 8b 09             	mov    rcx,QWORD PTR [rcx]
     23b:	41 8b 99 3e 00 00 00 	mov    ebx,DWORD PTR [r9+0x3e]
     242:	41 8b 99 3f 00 00 00 	mov    ebx,DWORD PTR [r9+0x3f]
     249:	41 8b 99 40 00 00 00 	mov    ebx,DWORD PTR [r9+0x40]
     250:	41 8b 99 41 00 00 00 	mov    ebx,DWORD PTR [r9+0x41]
     257:	41 8b 99 42 00 00 00 	mov    ebx,DWORD PTR [r9+0x42]
     25e:	41 8b 99 43 00 00 00 	mov    ebx,DWORD PTR [r9+0x43]
     265:	41 8b 99 44 00 00 00 	mov    ebx,DWORD PTR [r9+0x44]
     26c:	41 8b 99 45 00 00 00 	mov    ebx,DWORD PTR [r9+0x45]
     273:	41 8b 99 46 00 00 00 	mov    ebx,DWORD PTR [r9+0x46]
     27a:	41 8b 99 47 00 00 00 	mov    ebx,DWORD PTR [r9+0x47]
     281:	41 8b 99 48 00 00 00 	mov    ebx,DWORD PTR [r9+0x48]
     288:	41 8b 99 49 00 00 00 	mov    ebx,DWORD PTR [r9+0x49]
     28f:	41 8b 99 4a 00 00 00 	mov    ebx,DWORD PTR [r9+0x4a]
     296:	41 8b 99 4b 00 00 00 	mov    ebx,DWORD PTR [r9+0x4b]
     29d:	41 8b 99 4c 00 00 00 	mov    ebx,DWORD PTR [r9+0x4c]
     2a4:	41 8b 99 4d 00 00 00 	mov    ebx,DWORD PTR [r9+0x4d]
     2ab:	41 8b 99 4e 00 00 00 	mov    ebx,DWORD PTR [r9+0x4e]
     2b2:	41 8b 99 4f 00 00 00 	mov    ebx,DWORD PTR [r9+0x4f]
     2b9:	41 8b 99 50 00 00 00 	mov    ebx,DWORD PTR [r9+0x50]
     2c0:	41 8b 99 51 00 00 00 	mov    ebx,DWORD PTR [r9+0x51]
     2c7:	41 8b 99 52 00 00 00 	mov    ebx,DWORD PTR [r9+0x52]
     2ce:	41 8b 99 53 00 00 00 	mov    ebx,DWORD PTR [r9+0x53]
     2d5:	41 8b 99 54 00 00 00 	mov    ebx,DWORD PTR [r9+0x54]
     2dc:	41 8b 99 55 00 00 00 	mov    ebx,DWORD PTR [r9+0x55]
     2e3:	41 8b 99 56 00 00 00 	mov    ebx,DWORD PTR [r9+0x56]
     2ea:	41 8b 99 57 00 00 00 	mov    ebx,DWORD PTR [r9+0x57]
     2f1:	41 8b 99 58 00 00 00 	mov    ebx,DWORD PTR [r9+0x58]
     2f8:	41 8b 99 59 00 00 00 	mov    ebx,DWORD PTR [r9+0x59]
     2ff:	41 8b 99 5a 00 00 00 	mov    ebx,DWORD PTR [r9+0x5a]
     306:	41 8b 99 5b 00 00 00 	mov    ebx,DWORD PTR [r9+0x5b]
     30d:	41 8b 99 5c 00 00 00 	mov    ebx,DWORD PTR [r9+0x5c]
     314:	48 8b 12             	mov    rdx,QWORD PTR [rdx]
     317:	41 8b 99 5d 00 00 00 	mov    ebx,DWORD PTR [r9+0x5d]
     31e:	41 8b 99 5e 00 00 00 	mov    ebx,DWORD PTR [r9+0x5e]
     325:	41 8b 99 5f 00 00 00 	mov    ebx,DWORD PTR [r9+0x5f]
     32c:	41 8b 99 60 00 00 00 	mov    ebx,DWORD PTR [r9+0x60]
     333:	41 8b 99 61 00 00 00 	mov    ebx,DWORD PTR [r9+0x61]
     33a:	41 8b 99 62 00 00 00 	mov    ebx,DWORD PTR [r9+0x62]
     341:	41 8b 99 63 00 00 00 	mov    ebx,DWORD PTR [r9+0x63]
     348:	41 8b 99 64 00 00 00 	mov    ebx,DWORD PTR [r9+0x64]
     34f:	41 8b 99 65 00 00 00 	mov    ebx,DWORD PTR [r9+0x65]
     356:	41 8b 99 66 00 00 00 	mov    ebx,DWORD PTR [r9+0x66]
     35d:	41 8b 99 67 00 00 00 	mov    ebx,DWORD PTR [r9+0x67]
     364:	41 8b 99 68 00 00 00 	mov    ebx,DWORD PTR [r9+0x68]
     36b:	41 8b 99 69 00 00 00 	mov    ebx,DWORD PTR [r9+0x69]
     372:	41 8b 99 6a 00 00 00 	mov    ebx,DWORD PTR [r9+0x6a]
     379:	41 8b 99 6b 00 00 00 	mov    ebx,DWORD PTR [r9+0x6b]
     380:	41 8b 99 6c 00 00 00 	mov    ebx,DWORD PTR [r9+0x6c]
     387:	41 8b 99 6d 00 00 00 	mov    ebx,DWORD PTR [r9+0x6d]
     38e:	41 8b 99 6e 00 00 00 	mov    ebx,DWORD PTR [r9+0x6e]
     395:	41 8b 99 6f 00 00 00 	mov    ebx,DWORD PTR [r9+0x6f]
     39c:	41 8b 99 70 00 00 00 	mov    ebx,DWORD PTR [r9+0x70]
     3a3:	41 8b 99 71 00 00 00 	mov    ebx,DWORD PTR [r9+0x71]
     3aa:	41 8b 99 72 00 00 00 	mov    ebx,DWORD PTR [r9+0x72]
     3b1:	41 8b 99 73 00 00 00 	mov    ebx,DWORD PTR [r9+0x73]
     3b8:	41 8b 99 74 00 00 00 	mov    ebx,DWORD PTR [r9+0x74]
     3bf:	41 8b 99 75 00 00 00 	mov    ebx,DWORD PTR [r9+0x75]
     3c6:	41 8b 99 76 00 00 00 	mov    ebx,DWORD PTR [r9+0x76]
     3cd:	41 8b 99 77 00 00 00 	mov    ebx,DWORD PTR [r9+0x77]
     3d4:	41 8b 99 78 00 00 00 	mov    ebx,DWORD PTR [r9+0x78]
     3db:	41 8b 99 79 00 00 00 	mov    ebx,DWORD PTR [r9+0x79]
     3e2:	41 8b 99 7a 00 00 00 	mov    ebx,DWORD PTR [r9+0x7a]
     3e9:	41 8b 99 7b 00 00 00 	mov    ebx,DWORD PTR [r9+0x7b]
     3f0:	48 8b 09             	mov    rcx,QWORD PTR [rcx]
     3f3:	41 8b 99 7c 00 00 00 	mov    ebx,DWORD PTR [r9+0x7c]
     3fa:	41 8b 99 7d 00 00 00 	mov    ebx,DWORD PTR [r9+0x7d]
     401:	41 8b 99 7e 00 00 00 	mov    ebx,DWORD PTR [r9+0x7e]
     408:	41 8b 99 7f 00 00 00 	mov    ebx,DWORD PTR [r9+0x7f]
     40f:	41 8b 99 80 00 00 00 	mov    ebx,DWORD PTR [r9+0x80]
     416:	41 8b 99 81 00 00 00 	mov    ebx,DWORD PTR [r9+0x81]
     41d:	41 8b 99 82 00 00 00 	mov    ebx,DWORD PTR [r9+0x82]
     424:	41 8b 99 83 00 00 00 	mov    ebx,DWORD PTR [r9+0x83]
     42b:	41 8b 99 84 00 00 00 	mov    ebx,DWORD PTR [r9+0x84]
     432:	41 8b 99 85 00 00 00 	mov    ebx,DWORD PTR [r9+0x85]
     439:	41 8b 99 86 00 00 00 	mov    ebx,DWORD PTR [r9+0x86]
     440:	41 8b 99 87 00 00 00 	mov    ebx,DWORD PTR [r9+0x87]
     447:	41 8b 99 88 00 00 00 	mov    ebx,DWORD PTR [r9+0x88]
     44e:	41 8b 99 89 00 00 00 	mov    ebx,DWORD PTR [r9+0x89]
     455:	41 8b 99 8a 00 00 00 	mov    ebx,DWORD PTR [r9+0x8a]
     45c:	41 8b 99 8b 00 00 00 	mov    ebx,DWORD PTR [r9+0x8b]
     463:	41 8b 99 8c 00 00 00 	mov    ebx,DWORD PTR [r9+0x8c]
     46a:	41 8b 99 8d 00 00 00 	mov    ebx,DWORD PTR [r9+0x8d]
     471:	41 8b 99 8e 00 00 00 	mov    ebx,DWORD PTR [r9+0x8e]
     478:	41 8b 99 8f 00 00 00 	mov    ebx,DWORD PTR [r9+0x8f]
     47f:	41 8b 99 90 00 00 00 	mov    ebx,DWORD PTR [r9+0x90]
     486:	41 8b 99 91 00 00 00 	mov    ebx,DWORD PTR [r9+0x91]
     48d:	41 8b 99 92 00 00 00 	mov    ebx,DWORD PTR [r9+0x92]
     494:	41 8b 99 93 00 00 00 	mov    ebx,DWORD PTR [r9+0x93]
     49b:	41 8b 99 94 00 00 00 	mov    ebx,DWORD PTR [r9+0x94]
     4a2:	41 8b 99 95 00 00 00 	mov    ebx,DWORD PTR [r9+0x95]
     4a9:	41 8b 99 96 00 00 00 	mov    ebx,DWORD PTR [r9+0x96]
     4b0:	41 8b 99 97 00 00 00 	mov    ebx,DWORD PTR [r9+0x97]
     4b7:	41 8b 99 98 00 00 00 	mov    ebx,DWORD PTR [r9+0x98]
     4be:	41 8b 99 99 00 00 00 	mov    ebx,DWORD PTR [r9+0x99]
     4c5:	41 8b 99 9a 00 00 00 	mov    ebx,DWORD PTR [r9+0x9a]
     4cc:	48 8b 12             	mov    rdx,QWORD PTR [rdx]
     4cf:	41 8b 99 9b 00 00 00 	mov    ebx,DWORD PTR [r9+0x9b]
     4d6:	41 8b 99 9c 00 00 00 	mov    ebx,DWORD PTR [r9+0x9c]
     4dd:	41 8b 99 9d 00 00 00 	mov    ebx,DWORD PTR [r9+0x9d]
     4e4:	41 8b 99 9e 00 00 00 	mov    ebx,DWORD PTR [r9+0x9e]
     4eb:	41 8b 99 9f 00 00 00 	mov    ebx,DWORD PTR [r9+0x9f]
     4f2:	41 8b 99 a0 00 00 00 	mov    ebx,DWORD PTR [r9+0xa0]
     4f9:	41 8b 99 a1 00 00 00 	mov    ebx,DWORD PTR [r9+0xa1]
     500:	41 8b 99 a2 00 00 00 	mov    ebx,DWORD PTR [r9+0xa2]
     507:	41 8b 99 a3 00 00 00 	mov    ebx,DWORD PTR [r9+0xa3]
     50e:	41 8b 99 a4 00 00 00 	mov    ebx,DWORD PTR [r9+0xa4]
     515:	41 8b 99 a5 00 00 00 	mov    ebx,DWORD PTR [r9+0xa5]
     51c:	41 8b 99 a6 00 00 00 	mov    ebx,DWORD PTR [r9+0xa6]
     523:	41 8b 99 a7 00 00 00 	mov    ebx,DWORD PTR [r9+0xa7]
     52a:	41 8b 99 a8 00 00 00 	mov    ebx,DWORD PTR [r9+0xa8]
     531:	41 8b 99 a9 00 00 00 	mov    ebx,DWORD PTR [r9+0xa9]
     538:	41 8b 99 aa 00 00 00 	mov    ebx,DWORD PTR [r9+0xaa]
     53f:	41 8b 99 ab 00 00 00 	mov    ebx,DWORD PTR [r9+0xab]
     546:	41 8b 99 ac 00 00 00 	mov    ebx,DWORD PTR [r9+0xac]
     54d:	41 8b 99 ad 00 00 00 	mov    ebx,DWORD PTR [r9+0xad]
     554:	41 8b 99 ae 00 00 00 	mov    ebx,DWORD PTR [r9+0xae]
     55b:	41 8b 99 af 00 00 00 	mov    ebx,DWORD PTR [r9+0xaf]
     562:	41 8b 99 b0 00 00 00 	mov    ebx,DWORD PTR [r9+0xb0]
     569:	41 8b 99 b1 00 00 00 	mov    ebx,DWORD PTR [r9+0xb1]
     570:	41 8b 99 b2 00 00 00 	mov    ebx,DWORD PTR [r9+0xb2]
     577:	41 8b 99 b3 00 00 00 	mov    ebx,DWORD PTR [r9+0xb3]
     57e:	41 8b 99 b4 00 00 00 	mov    ebx,DWORD PTR [r9+0xb4]
     585:	41 8b 99 b5 00 00 00 	mov    ebx,DWORD PTR [r9+0xb5]
     58c:	41 8b 99 b6 00 00 00 	mov    ebx,DWORD PTR [r9+0xb6]
     593:	41 8b 99 b7 00 00 00 	mov    ebx,DWORD PTR [r9+0xb7]
     59a:	41 8b 99 b8 00 00 00 	mov    ebx,DWORD PTR [r9+0xb8]
     5a1:	41 8b 99 b9 00 00 00 	mov    ebx,DWORD PTR [r9+0xb9]
     5a8:	48 8b 09             	mov    rcx,QWORD PTR [rcx]
     5ab:	41 8b 99 ba 00 00 00 	mov    ebx,DWORD PTR [r9+0xba]
     5b2:	41 8b 99 bb 00 00 00 	mov    ebx,DWORD PTR [r9+0xbb]
     5b9:	41 8b 99 bc 00 00 00 	mov    ebx,DWORD PTR [r9+0xbc]
     5c0:	41 8b 99 bd 00 00 00 	mov    ebx,DWORD PTR [r9+0xbd]
     5c7:	41 8b 99 be 00 00 00 	mov    ebx,DWORD PTR [r9+0xbe]
     5ce:	41 8b 99 bf 00 00 00 	mov    ebx,DWORD PTR [r9+0xbf]
     5d5:	41 8b 99 c0 00 00 00 	mov    ebx,DWORD PTR [r9+0xc0]
     5dc:	41 8b 99 c1 00 00 00 	mov    ebx,DWORD PTR [r9+0xc1]
     5e3:	41 8b 99 c2 00 00 00 	mov    ebx,DWORD PTR [r9+0xc2]
     5ea:	41 8b 99 c3 00 00 00 	mov    ebx,DWORD PTR [r9+0xc3]
     5f1:	41 8b 99 c4 00 00 00 	mov    ebx,DWORD PTR [r9+0xc4]
     5f8:	41 8b 99 c5 00 00 00 	mov    ebx,DWORD PTR [r9+0xc5]
     5ff:	41 8b 99 c6 00 00 00 	mov    ebx,DWORD PTR [r9+0xc6]
     606:	41 8b 99 c7 00 00 00 	mov    ebx,DWORD PTR [r9+0xc7]
     60d:	41 8b 99 c8 00 00 00 	mov    ebx,DWORD PTR [r9+0xc8]
     614:	41 8b 99 c9 00 00 00 	mov    ebx,DWORD PTR [r9+0xc9]
     61b:	41 8b 99 ca 00 00 00 	mov    ebx,DWORD PTR [r9+0xca]
     622:	41 8b 99 cb 00 00 00 	mov    ebx,DWORD PTR [r9+0xcb]
     629:	41 8b 99 cc 00 00 00 	mov    ebx,DWORD PTR [r9+0xcc]
     630:	41 8b 99 cd 00 00 00 	mov    ebx,DWORD PTR [r9+0xcd]
     637:	41 8b 99 ce 00 00 00 	mov    ebx,DWORD PTR [r9+0xce]
     63e:	41 8b 99 cf 00 00 00 	mov    ebx,DWORD PTR [r9+0xcf]
     645:	41 8b 99 d0 00 00 00 	mov    ebx,DWORD PTR [r9+0xd0]
     64c:	41 8b 99 d1 00 00 00 	mov    ebx,DWORD PTR [r9+0xd1]
     653:	41 8b 99 d2 00 00 00 	mov    ebx,DWORD PTR [r9+0xd2]
     65a:	41 8b 99 d3 00 00 00 	mov    ebx,DWORD PTR [r9+0xd3]
     661:	41 8b 99 d4 00 00 00 	mov    ebx,DWORD PTR [r9+0xd4]
     668:	41 8b 99 d5 00 00 00 	mov    ebx,DWORD PTR [r9+0xd5]
     66f:	41 8b 99 d6 00 00 00 	mov    ebx,DWORD PTR [r9+0xd6]
     676:	41 8b 99 d7 00 00 00 	mov    ebx,DWORD PTR [r9+0xd7]
     67d:	41 8b 99 d8 00 00 00 	mov    ebx,DWORD PTR [r9+0xd8]
     684:	48 8b 12             	mov    rdx,QWORD PTR [rdx]
     687:	41 8b 99 d9 00 00 00 	mov    ebx,DWORD PTR [r9+0xd9]
     68e:	41 8b 99 da 00 00 00 	mov    ebx,DWORD PTR [r9+0xda]
     695:	41 8b 99 db 00 00 00 	mov    ebx,DWORD PTR [r9+0xdb]
     69c:	41 8b 99 dc 00 00 00 	mov    ebx,DWORD PTR [r9+0xdc]
     6a3:	41 8b 99 dd 00 00 00 	mov    ebx,DWORD PTR [r9+0xdd]
     6aa:	41 8b 99 de 00 00 00 	mov    ebx,DWORD PTR [r9+0xde]
     6b1:	41 8b 99 df 00 00 00 	mov    ebx,DWORD PTR [r9+0xdf]
     6b8:	41 8b 99 e0 00 00 00 	mov    ebx,DWORD PTR [r9+0xe0]
     6bf:	41 8b 99 e1 00 00 00 	mov    ebx,DWORD PTR [r9+0xe1]
     6c6:	41 8b 99 e2 00 00 00 	mov    ebx,DWORD PTR [r9+0xe2]
     6cd:	41 8b 99 e3 00 00 00 	mov    ebx,DWORD PTR [r9+0xe3]
     6d4:	41 8b 99 e4 00 00 00 	mov    ebx,DWORD PTR [r9+0xe4]
     6db:	41 8b 99 e5 00 00 00 	mov    ebx,DWORD PTR [r9+0xe5]
     6e2:	41 8b 99 e6 00 00 00 	mov    ebx,DWORD PTR [r9+0xe6]
     6e9:	41 8b 99 e7 00 00 00 	mov    ebx,DWORD PTR [r9+0xe7]
     6f0:	41 8b 99 e8 00 00 00 	mov    ebx,DWORD PTR [r9+0xe8]
     6f7:	41 8b 99 e9 00 00 00 	mov    ebx,DWORD PTR [r9+0xe9]
     6fe:	41 8b 99 ea 00 00 00 	mov    ebx,DWORD PTR [r9+0xea]
     705:	41 8b 99 eb 00 00 00 	mov    ebx,DWORD PTR [r9+0xeb]
     70c:	41 8b 99 ec 00 00 00 	mov    ebx,DWORD PTR [r9+0xec]
     713:	41 8b 99 ed 00 00 00 	mov    ebx,DWORD PTR [r9+0xed]
     71a:	41 8b 99 ee 00 00 00 	mov    ebx,DWORD PTR [r9+0xee]
     721:	41 8b 99 ef 00 00 00 	mov    ebx,DWORD PTR [r9+0xef]
     728:	41 8b 99 f0 00 00 00 	mov    ebx,DWORD PTR [r9+0xf0]
     72f:	41 8b 99 f1 00 00 00 	mov    ebx,DWORD PTR [r9+0xf1]
     736:	41 8b 99 f2 00 00 00 	mov    ebx,DWORD PTR [r9+0xf2]
     73d:	41 8b 99 f3 00 00 00 	mov    ebx,DWORD PTR [r9+0xf3]
     744:	41 8b 99 f4 00 00 00 	mov    ebx,DWORD PTR [r9+0xf4]
     74b:	41 8b 99 f5 00 00 00 	mov    ebx,DWORD PTR [r9+0xf5]
     752:	41 8b 99 f6 00 00 00 	mov    ebx,DWORD PTR [r9+0xf6]
     759:	41 8b 99 f7 00 00 00 	mov    ebx,DWORD PTR [r9+0xf7]
     760:	48 8b 09             	mov    rcx,QWORD PTR [rcx]
     763:	41 8b 99 f8 00 00 00 	mov    ebx,DWORD PTR [r9+0xf8]
     76a:	41 8b 99 f9 00 00 00 	mov    ebx,DWORD PTR [r9+0xf9]
     771:	41 8b 99 fa 00 00 00 	mov    ebx,DWORD PTR [r9+0xfa]
     778:	41 8b 99 fb 00 00 00 	mov    ebx,DWORD PTR [r9+0xfb]
     77f:	41 8b 99 fc 00 00 00 	mov    ebx,DWORD PTR [r9+0xfc]
     786:	41 8b 99 fd 00 00 00 	mov    ebx,DWORD PTR [r9+0xfd]
     78d:	41 8b 99 fe 00 00 00 	mov    ebx,DWORD PTR [r9+0xfe]
     794:	41 8b 99 ff 00 00 00 	mov    ebx,DWORD PTR [r9+0xff]
     79b:	41 8b 99 00 01 00 00 	mov    ebx,DWORD PTR [r9+0x100]
     7a2:	41 8b 99 01 01 00 00 	mov    ebx,DWORD PTR [r9+0x101]
     7a9:	41 8b 99 02 01 00 00 	mov    ebx,DWORD PTR [r9+0x102]
     7b0:	41 8b 99 03 01 00 00 	mov    ebx,DWORD PTR [r9+0x103]
     7b7:	41 8b 99 04 01 00 00 	mov    ebx,DWORD PTR [r9+0x104]
     7be:	41 8b 99 05 01 00 00 	mov    ebx,DWORD PTR [r9+0x105]
     7c5:	41 8b 99 06 01 00 00 	mov    ebx,DWORD PTR [r9+0x106]
     7cc:	41 8b 99 07 01 00 00 	mov    ebx,DWORD PTR [r9+0x107]
     7d3:	41 8b 99 08 01 00 00 	mov    ebx,DWORD PTR [r9+0x108]
     7da:	41 8b 99 09 01 00 00 	mov    ebx,DWORD PTR [r9+0x109]
     7e1:	41 8b 99 0a 01 00 00 	mov    ebx,DWORD PTR [r9+0x10a]
     7e8:	41 8b 99 0b 01 00 00 	mov    ebx,DWORD PTR [r9+0x10b]
     7ef:	41 8b 99 0c 01 00 00 	mov    ebx,DWORD PTR [r9+0x10c]
     7f6:	41 8b 99 0d 01 00 00 	mov    ebx,DWORD PTR [r9+0x10d]
     7fd:	41 8b 99 0e 01 00 00 	mov    ebx,DWORD PTR [r9+0x10e]
     804:	41 8b 99 0f 01 00 00 	mov    ebx,DWORD PTR [r9+0x10f]
     80b:	41 8b 99 10 01 00 00 	mov    ebx,DWORD PTR [r9+0x110]
     812:	41 8b 99 11 01 00 00 	mov    ebx,DWORD PTR [r9+0x111]
     819:	41 8b 99 12 01 00 00 	mov    ebx,DWORD PTR [r9+0x112]
     820:	41 8b 99 13 01 00 00 	mov    ebx,DWORD PTR [r9+0x113]
     827:	41 8b 99 14 01 00 00 	mov    ebx,DWORD PTR [r9+0x114]
     82e:	41 8b 99 15 01 00 00 	mov    ebx,DWORD PTR [r9+0x115]
     835:	41 8b 99 16 01 00 00 	mov    ebx,DWORD PTR [r9+0x116]
     83c:	48 8b 12             	mov    rdx,QWORD PTR [rdx]
     83f:	41 8b 99 17 01 00 00 	mov    ebx,DWORD PTR [r9+0x117]
     846:	41 8b 99 18 01 00 00 	mov    ebx,DWORD PTR [r9+0x118]
     84d:	41 8b 99 19 01 00 00 	mov    ebx,DWORD PTR [r9+0x119]
     854:	41 8b 99 1a 01 00 00 	mov    ebx,DWORD PTR [r9+0x11a]
     85b:	41 8b 99 1b 01 00 00 	mov    ebx,DWORD PTR [r9+0x11b]
     862:	41 8b 99 1c 01 00 00 	mov    ebx,DWORD PTR [r9+0x11c]
     869:	41 8b 99 1d 01 00 00 	mov    ebx,DWORD PTR [r9+0x11d]
     870:	41 8b 99 1e 01 00 00 	mov    ebx,DWORD PTR [r9+0x11e]
     877:	41 8b 99 1f 01 00 00 	mov    ebx,DWORD PTR [r9+0x11f]
     87e:	41 8b 99 20 01 00 00 	mov    ebx,DWORD PTR [r9+0x120]
     885:	41 8b 99 21 01 00 00 	mov    ebx,DWORD PTR [r9+0x121]
     88c:	41 8b 99 22 01 00 00 	mov    ebx,DWORD PTR [r9+0x122]
     893:	41 8b 99 23 01 00 00 	mov    ebx,DWORD PTR [r9+0x123]
     89a:	41 8b 99 24 01 00 00 	mov    ebx,DWORD PTR [r9+0x124]
     8a1:	41 8b 99 25 01 00 00 	mov    ebx,DWORD PTR [r9+0x125]
     8a8:	41 8b 99 26 01 00 00 	mov    ebx,DWORD PTR [r9+0x126]
     8af:	41 8b 99 27 01 00 00 	mov    ebx,DWORD PTR [r9+0x127]
     8b6:	41 8b 99 28 01 00 00 	mov    ebx,DWORD PTR [r9+0x128]
     8bd:	41 8b 99 29 01 00 00 	mov    ebx,DWORD PTR [r9+0x129]
     8c4:	41 8b 99 2a 01 00 00 	mov    ebx,DWORD PTR [r9+0x12a]
     8cb:	41 8b 99 2b 01 00 00 	mov    ebx,DWORD PTR [r9+0x12b]
     8d2:	41 8b 99 2c 01 00 00 	mov    ebx,DWORD PTR [r9+0x12c]
     8d9:	41 8b 99 2d 01 00 00 	mov    ebx,DWORD PTR [r9+0x12d]
     8e0:	41 8b 99 2e 01 00 00 	mov    ebx,DWORD PTR [r9+0x12e]
     8e7:	41 8b 99 2f 01 00 00 	mov    ebx,DWORD PTR [r9+0x12f]
     8ee:	41 8b 99 30 01 00 00 	mov    ebx,DWORD PTR [r9+0x130]
     8f5:	41 8b 99 31 01 00 00 	mov    ebx,DWORD PTR [r9+0x131]
     8fc:	41 8b 99 32 01 00 00 	mov    ebx,DWORD PTR [r9+0x132]
     903:	41 8b 99 33 01 00 00 	mov    ebx,DWORD PTR [r9+0x133]
     90a:	41 8b 99 34 01 00 00 	mov    ebx,DWORD PTR [r9+0x134]
     911:	41 8b 99 35 01 00 00 	mov    ebx,DWORD PTR [r9+0x135]
     918:	48 8b 09             	mov    rcx,QWORD PTR [rcx]
     91b:	41 8b 99 36 01 00 00 	mov    ebx,DWORD PTR [r9+0x136]
     922:	41 8b 99 37 01 00 00 	mov    ebx,DWORD PTR [r9+0x137]
     929:	41 8b 99 38 01 00 00 	mov    ebx,DWORD PTR [r9+0x138]
     930:	41 8b 99 39 01 00 00 	mov    ebx,DWORD PTR [r9+0x139]
     937:	41 8b 99 3a 01 00 00 	mov    ebx,DWORD PTR [r9+0x13a]
     93e:	41 8b 99 3b 01 00 00 	mov    ebx,DWORD PTR [r9+0x13b]
     945:	41 8b 99 3c 01 00 00 	mov    ebx,DWORD PTR [r9+0x13c]
     94c:	41 8b 99 3d 01 00 00 	mov    ebx,DWORD PTR [r9+0x13d]
     953:	41 8b 99 3e 01 00 00 	mov    ebx,DWORD PTR [r9+0x13e]
     95a:	41 8b 99 3f 01 00 00 	mov    ebx,DWORD PTR [r9+0x13f]
     961:	41 8b 99 40 01 00 00 	mov    ebx,DWORD PTR [r9+0x140]
     968:	41 8b 99 41 01 00 00 	mov    ebx,DWORD PTR [r9+0x141]
     96f:	41 8b 99 42 01 00 00 	mov    ebx,DWORD PTR [r9+0x142]
     976:	41 8b 99 43 01 00 00 	mov    ebx,DWORD PTR [r9+0x143]
     97d:	41 8b 99 44 01 00 00 	mov    ebx,DWORD PTR [r9+0x144]
     984:	41 8b 99 45 01 00 00 	mov    ebx,DWORD PTR [r9+0x145]
     98b:	41 8b 99 46 01 00 00 	mov    ebx,DWORD PTR [r9+0x146]
     992:	41 8b 99 47 01 00 00 	mov    ebx,DWORD PTR [r9+0x147]
     999:	41 8b 99 48 01 00 00 	mov    ebx,DWORD PTR [r9+0x148]
     9a0:	41 8b 99 49 01 00 00 	mov    ebx,DWORD PTR [r9+0x149]
     9a7:	41 8b 99 4a 01 00 00 	mov    ebx,DWORD PTR [r9+0x14a]
     9ae:	41 8b 99 4b 01 00 00 	mov    ebx,DWORD PTR [r9+0x14b]
     9b5:	41 8b 99 4c 01 00 00 	mov    ebx,DWORD PTR [r9+0x14c]
     9bc:	41 8b 99 4d 01 00 00 	mov    ebx,DWORD PTR [r9+0x14d]
     9c3:	41 8b 99 4e 01 00 00 	mov    ebx,DWORD PTR [r9+0x14e]
     9ca:	41 8b 99 4f 01 00 00 	mov    ebx,DWORD PTR [r9+0x14f]
     9d1:	41 8b 99 50 01 00 00 	mov    ebx,DWORD PTR [r9+0x150]
     9d8:	41 8b 99 51 01 00 00 	mov    ebx,DWORD PTR [r9+0x151]
     9df:	41 8b 99 52 01 00 00 	mov    ebx,DWORD PTR [r9+0x152]
     9e6:	41 8b 99 53 01 00 00 	mov    ebx,DWORD PTR [r9+0x153]
     9ed:	41 8b 99 54 01 00 00 	mov    ebx,DWORD PTR [r9+0x154]
     9f4:	48 8b 12             	mov    rdx,QWORD PTR [rdx]
     9f7:	41 8b 99 55 01 00 00 	mov    ebx,DWORD PTR [r9+0x155]
     9fe:	41 8b 99 56 01 00 00 	mov    ebx,DWORD PTR [r9+0x156]
     a05:	41 8b 99 57 01 00 00 	mov    ebx,DWORD PTR [r9+0x157]
     a0c:	41 8b 99 58 01 00 00 	mov    ebx,DWORD PTR [r9+0x158]
     a13:	41 8b 99 59 01 00 00 	mov    ebx,DWORD PTR [r9+0x159]
     a1a:	41 8b 99 5a 01 00 00 	mov    ebx,DWORD PTR [r9+0x15a]
     a21:	41 8b 99 5b 01 00 00 	mov    ebx,DWORD PTR [r9+0x15b]
     a28:	41 8b 99 5c 01 00 00 	mov    ebx,DWORD PTR [r9+0x15c]
     a2f:	41 8b 99 5d 01 00 00 	mov    ebx,DWORD PTR [r9+0x15d]
     a36:	41 8b 99 5e 01 00 00 	mov    ebx,DWORD PTR [r9+0x15e]
     a3d:	41 8b 99 5f 01 00 00 	mov    ebx,DWORD PTR [r9+0x15f]
     a44:	41 8b 99 60 01 00 00 	mov    ebx,DWORD PTR [r9+0x160]
     a4b:	41 8b 99 61 01 00 00 	mov    ebx,DWORD PTR [r9+0x161]
     a52:	41 8b 99 62 01 00 00 	mov    ebx,DWORD PTR [r9+0x162]
     a59:	41 8b 99 63 01 00 00 	mov    ebx,DWORD PTR [r9+0x163]
     a60:	41 8b 99 64 01 00 00 	mov    ebx,DWORD PTR [r9+0x164]
     a67:	41 8b 99 65 01 00 00 	mov    ebx,DWORD PTR [r9+0x165]
     a6e:	41 8b 99 66 01 00 00 	mov    ebx,DWORD PTR [r9+0x166]
     a75:	41 8b 99 67 01 00 00 	mov    ebx,DWORD PTR [r9+0x167]
     a7c:	41 8b 99 68 01 00 00 	mov    ebx,DWORD PTR [r9+0x168]
     a83:	41 8b 99 69 01 00 00 	mov    ebx,DWORD PTR [r9+0x169]
     a8a:	41 8b 99 6a 01 00 00 	mov    ebx,DWORD PTR [r9+0x16a]
     a91:	41 8b 99 6b 01 00 00 	mov    ebx,DWORD PTR [r9+0x16b]
     a98:	41 8b 99 6c 01 00 00 	mov    ebx,DWORD PTR [r9+0x16c]
     a9f:	41 8b 99 6d 01 00 00 	mov    ebx,DWORD PTR [r9+0x16d]
     aa6:	41 8b 99 6e 01 00 00 	mov    ebx,DWORD PTR [r9+0x16e]
     aad:	41 8b 99 6f 01 00 00 	mov    ebx,DWORD PTR [r9+0x16f]
     ab4:	41 8b 99 70 01 00 00 	mov    ebx,DWORD PTR [r9+0x170]
     abb:	41 8b 99 71 01 00 00 	mov    ebx,DWORD PTR [r9+0x171]
     ac2:	41 8b 99 72 01 00 00 	mov    ebx,DWORD PTR [r9+0x172]
     ac9:	41 8b 99 73 01 00 00 	mov    ebx,DWORD PTR [r9+0x173]
     ad0:	48 8b 09             	mov    rcx,QWORD PTR [rcx]
     ad3:	41 8b 99 74 01 00 00 	mov    ebx,DWORD PTR [r9+0x174]
     ada:	41 8b 99 75 01 00 00 	mov    ebx,DWORD PTR [r9+0x175]
     ae1:	41 8b 99 76 01 00 00 	mov    ebx,DWORD PTR [r9+0x176]
     ae8:	41 8b 99 77 01 00 00 	mov    ebx,DWORD PTR [r9+0x177]
     aef:	41 8b 99 78 01 00 00 	mov    ebx,DWORD PTR [r9+0x178]
     af6:	41 8b 99 79 01 00 00 	mov    ebx,DWORD PTR [r9+0x179]
     afd:	41 8b 99 7a 01 00 00 	mov    ebx,DWORD PTR [r9+0x17a]
     b04:	41 8b 99 7b 01 00 00 	mov    ebx,DWORD PTR [r9+0x17b]
     b0b:	41 8b 99 7c 01 00 00 	mov    ebx,DWORD PTR [r9+0x17c]
     b12:	41 8b 99 7d 01 00 00 	mov    ebx,DWORD PTR [r9+0x17d]
     b19:	41 8b 99 7e 01 00 00 	mov    ebx,DWORD PTR [r9+0x17e]
     b20:	41 8b 99 7f 01 00 00 	mov    ebx,DWORD PTR [r9+0x17f]
     b27:	41 8b 99 80 01 00 00 	mov    ebx,DWORD PTR [r9+0x180]
     b2e:	41 8b 99 81 01 00 00 	mov    ebx,DWORD PTR [r9+0x181]
     b35:	41 8b 99 82 01 00 00 	mov    ebx,DWORD PTR [r9+0x182]
     b3c:	41 8b 99 83 01 00 00 	mov    ebx,DWORD PTR [r9+0x183]
     b43:	41 8b 99 84 01 00 00 	mov    ebx,DWORD PTR [r9+0x184]
     b4a:	41 8b 99 85 01 00 00 	mov    ebx,DWORD PTR [r9+0x185]
     b51:	41 8b 99 86 01 00 00 	mov    ebx,DWORD PTR [r9+0x186]
     b58:	41 8b 99 87 01 00 00 	mov    ebx,DWORD PTR [r9+0x187]
     b5f:	41 8b 99 88 01 00 00 	mov    ebx,DWORD PTR [r9+0x188]
     b66:	41 8b 99 89 01 00 00 	mov    ebx,DWORD PTR [r9+0x189]
     b6d:	41 8b 99 8a 01 00 00 	mov    ebx,DWORD PTR [r9+0x18a]
     b74:	41 8b 99 8b 01 00 00 	mov    ebx,DWORD PTR [r9+0x18b]
     b7b:	41 8b 99 8c 01 00 00 	mov    ebx,DWORD PTR [r9+0x18c]
     b82:	41 8b 99 8d 01 00 00 	mov    ebx,DWORD PTR [r9+0x18d]
     b89:	41 8b 99 8e 01 00 00 	mov    ebx,DWORD PTR [r9+0x18e]
     b90:	41 8b 99 8f 01 00 00 	mov    ebx,DWORD PTR [r9+0x18f]
     b97:	41 8b 99 90 01 00 00 	mov    ebx,DWORD PTR [r9+0x190]
     b9e:	41 8b 99 91 01 00 00 	mov    ebx,DWORD PTR [r9+0x191]
     ba5:	41 8b 99 92 01 00 00 	mov    ebx,DWORD PTR [r9+0x192]
     bac:	48 8b 12             	mov    rdx,QWORD PTR [rdx]
     baf:	41 8b 99 93 01 00 00 	mov    ebx,DWORD PTR [r9+0x193]
     bb6:	41 8b 99 94 01 00 00 	mov    ebx,DWORD PTR [r9+0x194]
     bbd:	41 8b 99 95 01 00 00 	mov    ebx,DWORD PTR [r9+0x195]
     bc4:	41 8b 99 96 01 00 00 	mov    ebx,DWORD PTR [r9+0x196]
     bcb:	41 8b 99 97 01 00 00 	mov    ebx,DWORD PTR [r9+0x197]
     bd2:	41 8b 99 98 01 00 00 	mov    ebx,DWORD PTR [r9+0x198]
     bd9:	41 8b 99 99 01 00 00 	mov    ebx,DWORD PTR [r9+0x199]
     be0:	41 8b 99 9a 01 00 00 	mov    ebx,DWORD PTR [r9+0x19a]
     be7:	41 8b 99 9b 01 00 00 	mov    ebx,DWORD PTR [r9+0x19b]
     bee:	41 8b 99 9c 01 00 00 	mov    ebx,DWORD PTR [r9+0x19c]
     bf5:	41 8b 99 9d 01 00 00 	mov    ebx,DWORD PTR [r9+0x19d]
     bfc:	41 8b 99 9e 01 00 00 	mov    ebx,DWORD PTR [r9+0x19e]
     c03:	41 8b 99 9f 01 00 00 	mov    ebx,DWORD PTR [r9+0x19f]
     c0a:	41 8b 99 a0 01 00 00 	mov    ebx,DWORD PTR [r9+0x1a0]
     c11:	41 8b 99 a1 01 00 00 	mov    ebx,DWORD PTR [r9+0x1a1]
     c18:	41 8b 99 a2 01 00 00 	mov    ebx,DWORD PTR [r9+0x1a2]
     c1f:	41 8b 99 a3 01 00 00 	mov    ebx,DWORD PTR [r9+0x1a3]
     c26:	41 8b 99 a4 01 00 00 	mov    ebx,DWORD PTR [r9+0x1a4]
     c2d:	41 8b 99 a5 01 00 00 	mov    ebx,DWORD PTR [r9+0x1a5]
     c34:	41 8b 99 a6 01 00 00 	mov    ebx,DWORD PTR [r9+0x1a6]
     c3b:	41 8b 99 a7 01 00 00 	mov    ebx,DWORD PTR [r9+0x1a7]
     c42:	41 8b 99 a8 01 00 00 	mov    ebx,DWORD PTR [r9+0x1a8]
     c49:	41 8b 99 a9 01 00 00 	mov    ebx,DWORD PTR [r9+0x1a9]
     c50:	41 8b 99 aa 01 00 00 	mov    ebx,DWORD PTR [r9+0x1aa]
     c57:	41 8b 99 ab 01 00 00 	mov    ebx,DWORD PTR [r9+0x1ab]
     c5e:	41 8b 99 ac 01 00 00 	mov    ebx,DWORD PTR [r9+0x1ac]
     c65:	41 8b 99 ad 01 00 00 	mov    ebx,DWORD PTR [r9+0x1ad]
     c6c:	41 8b 99 ae 01 00 00 	mov    ebx,DWORD PTR [r9+0x1ae]
     c73:	41 8b 99 af 01 00 00 	mov    ebx,DWORD PTR [r9+0x1af]
     c7a:	41 8b 99 b0 01 00 00 	mov    ebx,DWORD PTR [r9+0x1b0]
     c81:	41 8b 99 b1 01 00 00 	mov    ebx,DWORD PTR [r9+0x1b1]
     c88:	48 8b 09             	mov    rcx,QWORD PTR [rcx]
     c8b:	41 8b 99 b2 01 00 00 	mov    ebx,DWORD PTR [r9+0x1b2]
     c92:	41 8b 99 b3 01 00 00 	mov    ebx,DWORD PTR [r9+0x1b3]
     c99:	41 8b 99 b4 01 00 00 	mov    ebx,DWORD PTR [r9+0x1b4]
     ca0:	41 8b 99 b5 01 00 00 	mov    ebx,DWORD PTR [r9+0x1b5]
     ca7:	41 8b 99 b6 01 00 00 	mov    ebx,DWORD PTR [r9+0x1b6]
     cae:	41 8b 99 b7 01 00 00 	mov    ebx,DWORD PTR [r9+0x1b7]
     cb5:	41 8b 99 b8 01 00 00 	mov    ebx,DWORD PTR [r9+0x1b8]
     cbc:	41 8b 99 b9 01 00 00 	mov    ebx,DWORD PTR [r9+0x1b9]
     cc3:	41 8b 99 ba 01 00 00 	mov    ebx,DWORD PTR [r9+0x1ba]
     cca:	41 8b 99 bb 01 00 00 	mov    ebx,DWORD PTR [r9+0x1bb]
     cd1:	41 8b 99 bc 01 00 00 	mov    ebx,DWORD PTR [r9+0x1bc]
     cd8:	41 8b 99 bd 01 00 00 	mov    ebx,DWORD PTR [r9+0x1bd]
     cdf:	41 8b 99 be 01 00 00 	mov    ebx,DWORD PTR [r9+0x1be]
     ce6:	41 8b 99 bf 01 00 00 	mov    ebx,DWORD PTR [r9+0x1bf]
     ced:	41 8b 99 c0 01 00 00 	mov    ebx,DWORD PTR [r9+0x1c0]
     cf4:	41 8b 99 c1 01 00 00 	mov    ebx,DWORD PTR [r9+0x1c1]
     cfb:	41 8b 99 c2 01 00 00 	mov    ebx,DWORD PTR [r9+0x1c2]
     d02:	41 8b 99 c3 01 00 00 	mov    ebx,DWORD PTR [r9+0x1c3]
     d09:	41 8b 99 c4 01 00 00 	mov    ebx,DWORD PTR [r9+0x1c4]
     d10:	41 8b 99 c5 01 00 00 	mov    ebx,DWORD PTR [r9+0x1c5]
     d17:	41 8b 99 c6 01 00 00 	mov    ebx,DWORD PTR [r9+0x1c6]
     d1e:	41 8b 99 c7 01 00 00 	mov    ebx,DWORD PTR [r9+0x1c7]
     d25:	41 8b 99 c8 01 00 00 	mov    ebx,DWORD PTR [r9+0x1c8]
     d2c:	41 8b 99 c9 01 00 00 	mov    ebx,DWORD PTR [r9+0x1c9]
     d33:	41 8b 99 ca 01 00 00 	mov    ebx,DWORD PTR [r9+0x1ca]
     d3a:	41 8b 99 cb 01 00 00 	mov    ebx,DWORD PTR [r9+0x1cb]
     d41:	41 8b 99 cc 01 00 00 	mov    ebx,DWORD PTR [r9+0x1cc]
     d48:	41 8b 99 cd 01 00 00 	mov    ebx,DWORD PTR [r9+0x1cd]
     d4f:	41 8b 99 ce 01 00 00 	mov    ebx,DWORD PTR [r9+0x1ce]
     d56:	41 8b 99 cf 01 00 00 	mov    ebx,DWORD PTR [r9+0x1cf]
     d5d:	41 8b 99 d0 01 00 00 	mov    ebx,DWORD PTR [r9+0x1d0]
     d64:	48 8b 12             	mov    rdx,QWORD PTR [rdx]
     d67:	41 8b 99 d1 01 00 00 	mov    ebx,DWORD PTR [r9+0x1d1]
     d6e:	41 8b 99 d2 01 00 00 	mov    ebx,DWORD PTR [r9+0x1d2]
     d75:	41 8b 99 d3 01 00 00 	mov    ebx,DWORD PTR [r9+0x1d3]
     d7c:	41 8b 99 d4 01 00 00 	mov    ebx,DWORD PTR [r9+0x1d4]
     d83:	41 8b 99 d5 01 00 00 	mov    ebx,DWORD PTR [r9+0x1d5]
     d8a:	41 8b 99 d6 01 00 00 	mov    ebx,DWORD PTR [r9+0x1d6]
     d91:	41 8b 99 d7 01 00 00 	mov    ebx,DWORD PTR [r9+0x1d7]
     d98:	41 8b 99 d8 01 00 00 	mov    ebx,DWORD PTR [r9+0x1d8]
     d9f:	41 8b 99 d9 01 00 00 	mov    ebx,DWORD PTR [r9+0x1d9]
     da6:	41 8b 99 da 01 00 00 	mov    ebx,DWORD PTR [r9+0x1da]
     dad:	41 8b 99 db 01 00 00 	mov    ebx,DWORD PTR [r9+0x1db]
     db4:	41 8b 99 dc 01 00 00 	mov    ebx,DWORD PTR [r9+0x1dc]
     dbb:	41 8b 99 dd 01 00 00 	mov    ebx,DWORD PTR [r9+0x1dd]
     dc2:	41 8b 99 de 01 00 00 	mov    ebx,DWORD PTR [r9+0x1de]
     dc9:	41 8b 99 df 01 00 00 	mov    ebx,DWORD PTR [r9+0x1df]
     dd0:	41 8b 99 e0 01 00 00 	mov    ebx,DWORD PTR [r9+0x1e0]
     dd7:	41 8b 99 e1 01 00 00 	mov    ebx,DWORD PTR [r9+0x1e1]
     dde:	41 8b 99 e2 01 00 00 	mov    ebx,DWORD PTR [r9+0x1e2]
     de5:	41 8b 99 e3 01 00 00 	mov    ebx,DWORD PTR [r9+0x1e3]
     dec:	41 8b 99 e4 01 00 00 	mov    ebx,DWORD PTR [r9+0x1e4]
     df3:	41 8b 99 e5 01 00 00 	mov    ebx,DWORD PTR [r9+0x1e5]
     dfa:	41 8b 99 e6 01 00 00 	mov    ebx,DWORD PTR [r9+0x1e6]
     e01:	41 8b 99 e7 01 00 00 	mov    ebx,DWORD PTR [r9+0x1e7]
     e08:	41 8b 99 e8 01 00 00 	mov    ebx,DWORD PTR [r9+0x1e8]
     e0f:	41 8b 99 e9 01 00 00 	mov    ebx,DWORD PTR [r9+0x1e9]
     e16:	41 8b 99 ea 01 00 00 	mov    ebx,DWORD PTR [r9+0x1ea]
     e1d:	41 8b 99 eb 01 00 00 	mov    ebx,DWORD PTR [r9+0x1eb]
     e24:	41 8b 99 ec 01 00 00 	mov    ebx,DWORD PTR [r9+0x1ec]
     e2b:	41 8b 99 ed 01 00 00 	mov    ebx,DWORD PTR [r9+0x1ed]
     e32:	41 8b 99 ee 01 00 00 	mov    ebx,DWORD PTR [r9+0x1ee]
     e39:	41 8b 99 ef 01 00 00 	mov    ebx,DWORD PTR [r9+0x1ef]
     e40:	48 8b 09             	mov    rcx,QWORD PTR [rcx]
     e43:	41 8b 99 f0 01 00 00 	mov    ebx,DWORD PTR [r9+0x1f0]
     e4a:	41 8b 99 f1 01 00 00 	mov    ebx,DWORD PTR [r9+0x1f1]
     e51:	41 8b 99 f2 01 00 00 	mov    ebx,DWORD PTR [r9+0x1f2]
     e58:	41 8b 99 f3 01 00 00 	mov    ebx,DWORD PTR [r9+0x1f3]
     e5f:	41 8b 99 f4 01 00 00 	mov    ebx,DWORD PTR [r9+0x1f4]
     e66:	41 8b 99 f5 01 00 00 	mov    ebx,DWORD PTR [r9+0x1f5]
     e6d:	41 8b 99 f6 01 00 00 	mov    ebx,DWORD PTR [r9+0x1f6]
     e74:	41 8b 99 f7 01 00 00 	mov    ebx,DWORD PTR [r9+0x1f7]
     e7b:	41 8b 99 f8 01 00 00 	mov    ebx,DWORD PTR [r9+0x1f8]
     e82:	41 8b 99 f9 01 00 00 	mov    ebx,DWORD PTR [r9+0x1f9]
     e89:	41 8b 99 fa 01 00 00 	mov    ebx,DWORD PTR [r9+0x1fa]
     e90:	41 8b 99 fb 01 00 00 	mov    ebx,DWORD PTR [r9+0x1fb]
     e97:	41 8b 99 fc 01 00 00 	mov    ebx,DWORD PTR [r9+0x1fc]
     e9e:	41 8b 99 fd 01 00 00 	mov    ebx,DWORD PTR [r9+0x1fd]
     ea5:	41 8b 99 fe 01 00 00 	mov    ebx,DWORD PTR [r9+0x1fe]
     eac:	41 8b 99 ff 01 00 00 	mov    ebx,DWORD PTR [r9+0x1ff]
     eb3:	41 8b 99 00 02 00 00 	mov    ebx,DWORD PTR [r9+0x200]
     eba:	41 8b 99 01 02 00 00 	mov    ebx,DWORD PTR [r9+0x201]
     ec1:	41 8b 99 02 02 00 00 	mov    ebx,DWORD PTR [r9+0x202]
     ec8:	41 8b 99 03 02 00 00 	mov    ebx,DWORD PTR [r9+0x203]
     ecf:	41 8b 99 04 02 00 00 	mov    ebx,DWORD PTR [r9+0x204]
     ed6:	41 8b 99 05 02 00 00 	mov    ebx,DWORD PTR [r9+0x205]
     edd:	41 8b 99 06 02 00 00 	mov    ebx,DWORD PTR [r9+0x206]
     ee4:	41 8b 99 07 02 00 00 	mov    ebx,DWORD PTR [r9+0x207]
     eeb:	41 8b 99 08 02 00 00 	mov    ebx,DWORD PTR [r9+0x208]
     ef2:	41 8b 99 09 02 00 00 	mov    ebx,DWORD PTR [r9+0x209]
     ef9:	41 8b 99 0a 02 00 00 	mov    ebx,DWORD PTR [r9+0x20a]
     f00:	41 8b 99 0b 02 00 00 	mov    ebx,DWORD PTR [r9+0x20b]
     f07:	41 8b 99 0c 02 00 00 	mov    ebx,DWORD PTR [r9+0x20c]
     f0e:	41 8b 99 0d 02 00 00 	mov    ebx,DWORD PTR [r9+0x20d]
     f15:	41 8b 99 0e 02 00 00 	mov    ebx,DWORD PTR [r9+0x20e]
     f1c:	48 8b 12             	mov    rdx,QWORD PTR [rdx]
     f1f:	41 8b 99 0f 02 00 00 	mov    ebx,DWORD PTR [r9+0x20f]
     f26:	41 8b 99 10 02 00 00 	mov    ebx,DWORD PTR [r9+0x210]
     f2d:	41 8b 99 11 02 00 00 	mov    ebx,DWORD PTR [r9+0x211]
     f34:	41 8b 99 12 02 00 00 	mov    ebx,DWORD PTR [r9+0x212]
     f3b:	41 8b 99 13 02 00 00 	mov    ebx,DWORD PTR [r9+0x213]
     f42:	41 8b 99 14 02 00 00 	mov    ebx,DWORD PTR [r9+0x214]
     f49:	41 8b 99 15 02 00 00 	mov    ebx,DWORD PTR [r9+0x215]
     f50:	41 8b 99 16 02 00 00 	mov    ebx,DWORD PTR [r9+0x216]
     f57:	41 8b 99 17 02 00 00 	mov    ebx,DWORD PTR [r9+0x217]
     f5e:	41 8b 99 18 02 00 00 	mov    ebx,DWORD PTR [r9+0x218]
     f65:	41 8b 99 19 02 00 00 	mov    ebx,DWORD PTR [r9+0x219]
     f6c:	41 8b 99 1a 02 00 00 	mov    ebx,DWORD PTR [r9+0x21a]
     f73:	41 8b 99 1b 02 00 00 	mov    ebx,DWORD PTR [r9+0x21b]
     f7a:	41 8b 99 1c 02 00 00 	mov    ebx,DWORD PTR [r9+0x21c]
     f81:	41 8b 99 1d 02 00 00 	mov    ebx,DWORD PTR [r9+0x21d]
     f88:	41 8b 99 1e 02 00 00 	mov    ebx,DWORD PTR [r9+0x21e]
     f8f:	41 8b 99 1f 02 00 00 	mov    ebx,DWORD PTR [r9+0x21f]
     f96:	41 8b 99 20 02 00 00 	mov    ebx,DWORD PTR [r9+0x220]
     f9d:	41 8b 99 21 02 00 00 	mov    ebx,DWORD PTR [r9+0x221]
     fa4:	41 8b 99 22 02 00 00 	mov    ebx,DWORD PTR [r9+0x222]
     fab:	41 8b 99 23 02 00 00 	mov    ebx,DWORD PTR [r9+0x223]
     fb2:	41 8b 99 24 02 00 00 	mov    ebx,DWORD PTR [r9+0x224]
     fb9:	41 8b 99 25 02 00 00 	mov    ebx,DWORD PTR [r9+0x225]
     fc0:	41 8b 99 26 02 00 00 	mov    ebx,DWORD PTR [r9+0x226]
     fc7:	41 8b 99 27 02 00 00 	mov    ebx,DWORD PTR [r9+0x227]
     fce:	41 8b 99 28 02 00 00 	mov    ebx,DWORD PTR [r9+0x228]
     fd5:	41 8b 99 29 02 00 00 	mov    ebx,DWORD PTR [r9+0x229]
     fdc:	41 8b 99 2a 02 00 00 	mov    ebx,DWORD PTR [r9+0x22a]
     fe3:	41 8b 99 2b 02 00 00 	mov    ebx,DWORD PTR [r9+0x22b]
     fea:	41 8b 99 2c 02 00 00 	mov    ebx,DWORD PTR [r9+0x22c]
     ff1:	41 8b 99 2d 02 00 00 	mov    ebx,DWORD PTR [r9+0x22d]
     ff8:	48 8b 09             	mov    rcx,QWORD PTR [rcx]
     ffb:	41 8b 99 2e 02 00 00 	mov    ebx,DWORD PTR [r9+0x22e]
    1002:	41 8b 99 2f 02 00 00 	mov    ebx,DWORD PTR [r9+0x22f]
    1009:	41 8b 99 30 02 00 00 	mov    ebx,DWORD PTR [r9+0x230]
    1010:	41 8b 99 31 02 00 00 	mov    ebx,DWORD PTR [r9+0x231]
    1017:	41 8b 99 32 02 00 00 	mov    ebx,DWORD PTR [r9+0x232]
    101e:	41 8b 99 33 02 00 00 	mov    ebx,DWORD PTR [r9+0x233]
    1025:	41 8b 99 34 02 00 00 	mov    ebx,DWORD PTR [r9+0x234]
    102c:	41 8b 99 35 02 00 00 	mov    ebx,DWORD PTR [r9+0x235]
    1033:	41 8b 99 36 02 00 00 	mov    ebx,DWORD PTR [r9+0x236]
    103a:	41 8b 99 37 02 00 00 	mov    ebx,DWORD PTR [r9+0x237]
    1041:	41 8b 99 38 02 00 00 	mov    ebx,DWORD PTR [r9+0x238]
    1048:	41 8b 99 39 02 00 00 	mov    ebx,DWORD PTR [r9+0x239]
    104f:	41 8b 99 3a 02 00 00 	mov    ebx,DWORD PTR [r9+0x23a]
    1056:	41 8b 99 3b 02 00 00 	mov    ebx,DWORD PTR [r9+0x23b]
    105d:	41 8b 99 3c 02 00 00 	mov    ebx,DWORD PTR [r9+0x23c]
    1064:	41 8b 99 3d 02 00 00 	mov    ebx,DWORD PTR [r9+0x23d]
    106b:	41 8b 99 3e 02 00 00 	mov    ebx,DWORD PTR [r9+0x23e]
    1072:	41 8b 99 3f 02 00 00 	mov    ebx,DWORD PTR [r9+0x23f]
    1079:	41 8b 99 40 02 00 00 	mov    ebx,DWORD PTR [r9+0x240]
    1080:	41 8b 99 41 02 00 00 	mov    ebx,DWORD PTR [r9+0x241]
    1087:	41 8b 99 42 02 00 00 	mov    ebx,DWORD PTR [r9+0x242]
    108e:	41 8b 99 43 02 00 00 	mov    ebx,DWORD PTR [r9+0x243]
    1095:	41 8b 99 44 02 00 00 	mov    ebx,DWORD PTR [r9+0x244]
    109c:	41 8b 99 45 02 00 00 	mov    ebx,DWORD PTR [r9+0x245]
    10a3:	41 8b 99 46 02 00 00 	mov    ebx,DWORD PTR [r9+0x246]
    10aa:	41 8b 99 47 02 00 00 	mov    ebx,DWORD PTR [r9+0x247]
    10b1:	41 8b 99 48 02 00 00 	mov    ebx,DWORD PTR [r9+0x248]
    10b8:	41 8b 99 49 02 00 00 	mov    ebx,DWORD PTR [r9+0x249]
    10bf:	41 8b 99 4a 02 00 00 	mov    ebx,DWORD PTR [r9+0x24a]
    10c6:	41 8b 99 4b 02 00 00 	mov    ebx,DWORD PTR [r9+0x24b]
    10cd:	41 8b 99 4c 02 00 00 	mov    ebx,DWORD PTR [r9+0x24c]
    10d4:	48 8b 12             	mov    rdx,QWORD PTR [rdx]
    10d7:	41 8b 99 4d 02 00 00 	mov    ebx,DWORD PTR [r9+0x24d]
    10de:	41 8b 99 4e 02 00 00 	mov    ebx,DWORD PTR [r9+0x24e]
    10e5:	41 8b 99 4f 02 00 00 	mov    ebx,DWORD PTR [r9+0x24f]
    10ec:	41 8b 99 50 02 00 00 	mov    ebx,DWORD PTR [r9+0x250]
    10f3:	41 8b 99 51 02 00 00 	mov    ebx,DWORD PTR [r9+0x251]
    10fa:	41 8b 99 52 02 00 00 	mov    ebx,DWORD PTR [r9+0x252]
    1101:	41 8b 99 53 02 00 00 	mov    ebx,DWORD PTR [r9+0x253]
    1108:	41 8b 99 54 02 00 00 	mov    ebx,DWORD PTR [r9+0x254]
    110f:	41 8b 99 55 02 00 00 	mov    ebx,DWORD PTR [r9+0x255]
    1116:	41 8b 99 56 02 00 00 	mov    ebx,DWORD PTR [r9+0x256]
    111d:	41 8b 99 57 02 00 00 	mov    ebx,DWORD PTR [r9+0x257]
    1124:	41 8b 99 58 02 00 00 	mov    ebx,DWORD PTR [r9+0x258]
    112b:	41 8b 99 59 02 00 00 	mov    ebx,DWORD PTR [r9+0x259]
    1132:	41 8b 99 5a 02 00 00 	mov    ebx,DWORD PTR [r9+0x25a]
    1139:	41 8b 99 5b 02 00 00 	mov    ebx,DWORD PTR [r9+0x25b]
    1140:	41 8b 99 5c 02 00 00 	mov    ebx,DWORD PTR [r9+0x25c]
    1147:	41 8b 99 5d 02 00 00 	mov    ebx,DWORD PTR [r9+0x25d]
    114e:	41 8b 99 5e 02 00 00 	mov    ebx,DWORD PTR [r9+0x25e]
    1155:	41 8b 99 5f 02 00 00 	mov    ebx,DWORD PTR [r9+0x25f]
    115c:	41 8b 99 60 02 00 00 	mov    ebx,DWORD PTR [r9+0x260]
    1163:	41 8b 99 61 02 00 00 	mov    ebx,DWORD PTR [r9+0x261]
    116a:	41 8b 99 62 02 00 00 	mov    ebx,DWORD PTR [r9+0x262]
    1171:	41 8b 99 63 02 00 00 	mov    ebx,DWORD PTR [r9+0x263]
    1178:	41 8b 99 64 02 00 00 	mov    ebx,DWORD PTR [r9+0x264]
    117f:	41 8b 99 65 02 00 00 	mov    ebx,DWORD PTR [r9+0x265]
    1186:	41 8b 99 66 02 00 00 	mov    ebx,DWORD PTR [r9+0x266]
    118d:	41 8b 99 67 02 00 00 	mov    ebx,DWORD PTR [r9+0x267]
    1194:	41 8b 99 68 02 00 00 	mov    ebx,DWORD PTR [r9+0x268]
    119b:	41 8b 99 69 02 00 00 	mov    ebx,DWORD PTR [r9+0x269]
    11a2:	41 8b 99 6a 02 00 00 	mov    ebx,DWORD PTR [r9+0x26a]
    11a9:	41 8b 99 6b 02 00 00 	mov    ebx,DWORD PTR [r9+0x26b]
    11b0:	48 8b 09             	mov    rcx,QWORD PTR [rcx]
    11b3:	41 8b 99 6c 02 00 00 	mov    ebx,DWORD PTR [r9+0x26c]
    11ba:	41 8b 99 6d 02 00 00 	mov    ebx,DWORD PTR [r9+0x26d]
    11c1:	41 8b 99 6e 02 00 00 	mov    ebx,DWORD PTR [r9+0x26e]
    11c8:	41 8b 99 6f 02 00 00 	mov    ebx,DWORD PTR [r9+0x26f]
    11cf:	41 8b 99 70 02 00 00 	mov    ebx,DWORD PTR [r9+0x270]
    11d6:	41 8b 99 71 02 00 00 	mov    ebx,DWORD PTR [r9+0x271]
    11dd:	41 8b 99 72 02 00 00 	mov    ebx,DWORD PTR [r9+0x272]
    11e4:	41 8b 99 73 02 00 00 	mov    ebx,DWORD PTR [r9+0x273]
    11eb:	41 8b 99 74 02 00 00 	mov    ebx,DWORD PTR [r9+0x274]
    11f2:	41 8b 99 75 02 00 00 	mov    ebx,DWORD PTR [r9+0x275]
    11f9:	41 8b 99 76 02 00 00 	mov    ebx,DWORD PTR [r9+0x276]
    1200:	41 8b 99 77 02 00 00 	mov    ebx,DWORD PTR [r9+0x277]
    1207:	41 8b 99 78 02 00 00 	mov    ebx,DWORD PTR [r9+0x278]
    120e:	41 8b 99 79 02 00 00 	mov    ebx,DWORD PTR [r9+0x279]
    1215:	41 8b 99 7a 02 00 00 	mov    ebx,DWORD PTR [r9+0x27a]
    121c:	41 8b 99 7b 02 00 00 	mov    ebx,DWORD PTR [r9+0x27b]
    1223:	41 8b 99 7c 02 00 00 	mov    ebx,DWORD PTR [r9+0x27c]
    122a:	41 8b 99 7d 02 00 00 	mov    ebx,DWORD PTR [r9+0x27d]
    1231:	41 8b 99 7e 02 00 00 	mov    ebx,DWORD PTR [r9+0x27e]
    1238:	41 8b 99 7f 02 00 00 	mov    ebx,DWORD PTR [r9+0x27f]
    123f:	41 8b 99 80 02 00 00 	mov    ebx,DWORD PTR [r9+0x280]
    1246:	41 8b 99 81 02 00 00 	mov    ebx,DWORD PTR [r9+0x281]
    124d:	41 8b 99 82 02 00 00 	mov    ebx,DWORD PTR [r9+0x282]
    1254:	41 8b 99 83 02 00 00 	mov    ebx,DWORD PTR [r9+0x283]
    125b:	41 8b 99 84 02 00 00 	mov    ebx,DWORD PTR [r9+0x284]
    1262:	41 8b 99 85 02 00 00 	mov    ebx,DWORD PTR [r9+0x285]
    1269:	41 8b 99 86 02 00 00 	mov    ebx,DWORD PTR [r9+0x286]
    1270:	41 8b 99 87 02 00 00 	mov    ebx,DWORD PTR [r9+0x287]
    1277:	41 8b 99 88 02 00 00 	mov    ebx,DWORD PTR [r9+0x288]
    127e:	41 8b 99 89 02 00 00 	mov    ebx,DWORD PTR [r9+0x289]
    1285:	41 8b 99 8a 02 00 00 	mov    ebx,DWORD PTR [r9+0x28a]
    128c:	48 8b 12             	mov    rdx,QWORD PTR [rdx]
    128f:	41 8b 99 8b 02 00 00 	mov    ebx,DWORD PTR [r9+0x28b]
    1296:	41 8b 99 8c 02 00 00 	mov    ebx,DWORD PTR [r9+0x28c]
    129d:	41 8b 99 8d 02 00 00 	mov    ebx,DWORD PTR [r9+0x28d]
    12a4:	41 8b 99 8e 02 00 00 	mov    ebx,DWORD PTR [r9+0x28e]
    12ab:	41 8b 99 8f 02 00 00 	mov    ebx,DWORD PTR [r9+0x28f]
    12b2:	41 8b 99 90 02 00 00 	mov    ebx,DWORD PTR [r9+0x290]
    12b9:	41 8b 99 91 02 00 00 	mov    ebx,DWORD PTR [r9+0x291]
    12c0:	41 8b 99 92 02 00 00 	mov    ebx,DWORD PTR [r9+0x292]
    12c7:	41 8b 99 93 02 00 00 	mov    ebx,DWORD PTR [r9+0x293]
    12ce:	41 8b 99 94 02 00 00 	mov    ebx,DWORD PTR [r9+0x294]
    12d5:	41 8b 99 95 02 00 00 	mov    ebx,DWORD PTR [r9+0x295]
    12dc:	41 8b 99 96 02 00 00 	mov    ebx,DWORD PTR [r9+0x296]
    12e3:	41 8b 99 97 02 00 00 	mov    ebx,DWORD PTR [r9+0x297]
    12ea:	41 8b 99 98 02 00 00 	mov    ebx,DWORD PTR [r9+0x298]
    12f1:	41 8b 99 99 02 00 00 	mov    ebx,DWORD PTR [r9+0x299]
    12f8:	41 8b 99 9a 02 00 00 	mov    ebx,DWORD PTR [r9+0x29a]
    12ff:	41 8b 99 9b 02 00 00 	mov    ebx,DWORD PTR [r9+0x29b]
    1306:	41 8b 99 9c 02 00 00 	mov    ebx,DWORD PTR [r9+0x29c]
    130d:	41 8b 99 9d 02 00 00 	mov    ebx,DWORD PTR [r9+0x29d]
    1314:	41 8b 99 9e 02 00 00 	mov    ebx,DWORD PTR [r9+0x29e]
    131b:	41 8b 99 9f 02 00 00 	mov    ebx,DWORD PTR [r9+0x29f]
    1322:	41 8b 99 a0 02 00 00 	mov    ebx,DWORD PTR [r9+0x2a0]
    1329:	41 8b 99 a1 02 00 00 	mov    ebx,DWORD PTR [r9+0x2a1]
    1330:	41 8b 99 a2 02 00 00 	mov    ebx,DWORD PTR [r9+0x2a2]
    1337:	41 8b 99 a3 02 00 00 	mov    ebx,DWORD PTR [r9+0x2a3]
    133e:	41 8b 99 a4 02 00 00 	mov    ebx,DWORD PTR [r9+0x2a4]
    1345:	41 8b 99 a5 02 00 00 	mov    ebx,DWORD PTR [r9+0x2a5]
    134c:	41 8b 99 a6 02 00 00 	mov    ebx,DWORD PTR [r9+0x2a6]
    1353:	41 8b 99 a7 02 00 00 	mov    ebx,DWORD PTR [r9+0x2a7]
    135a:	41 8b 99 a8 02 00 00 	mov    ebx,DWORD PTR [r9+0x2a8]
    1361:	41 8b 99 a9 02 00 00 	mov    ebx,DWORD PTR [r9+0x2a9]
    1368:	48 8b 09             	mov    rcx,QWORD PTR [rcx]
    136b:	41 8b 99 aa 02 00 00 	mov    ebx,DWORD PTR [r9+0x2aa]
    1372:	41 8b 99 ab 02 00 00 	mov    ebx,DWORD PTR [r9+0x2ab]
    1379:	41 8b 99 ac 02 00 00 	mov    ebx,DWORD PTR [r9+0x2ac]
    1380:	41 8b 99 ad 02 00 00 	mov    ebx,DWORD PTR [r9+0x2ad]
    1387:	41 8b 99 ae 02 00 00 	mov    ebx,DWORD PTR [r9+0x2ae]
    138e:	41 8b 99 af 02 00 00 	mov    ebx,DWORD PTR [r9+0x2af]
    1395:	41 8b 99 b0 02 00 00 	mov    ebx,DWORD PTR [r9+0x2b0]
    139c:	41 8b 99 b1 02 00 00 	mov    ebx,DWORD PTR [r9+0x2b1]
    13a3:	41 8b 99 b2 02 00 00 	mov    ebx,DWORD PTR [r9+0x2b2]
    13aa:	41 8b 99 b3 02 00 00 	mov    ebx,DWORD PTR [r9+0x2b3]
    13b1:	41 8b 99 b4 02 00 00 	mov    ebx,DWORD PTR [r9+0x2b4]
    13b8:	41 8b 99 b5 02 00 00 	mov    ebx,DWORD PTR [r9+0x2b5]
    13bf:	41 8b 99 b6 02 00 00 	mov    ebx,DWORD PTR [r9+0x2b6]
    13c6:	41 8b 99 b7 02 00 00 	mov    ebx,DWORD PTR [r9+0x2b7]
    13cd:	41 8b 99 b8 02 00 00 	mov    ebx,DWORD PTR [r9+0x2b8]
    13d4:	41 8b 99 b9 02 00 00 	mov    ebx,DWORD PTR [r9+0x2b9]
    13db:	41 8b 99 ba 02 00 00 	mov    ebx,DWORD PTR [r9+0x2ba]
    13e2:	41 8b 99 bb 02 00 00 	mov    ebx,DWORD PTR [r9+0x2bb]
    13e9:	41 8b 99 bc 02 00 00 	mov    ebx,DWORD PTR [r9+0x2bc]
    13f0:	41 8b 99 bd 02 00 00 	mov    ebx,DWORD PTR [r9+0x2bd]
    13f7:	41 8b 99 be 02 00 00 	mov    ebx,DWORD PTR [r9+0x2be]
    13fe:	41 8b 99 bf 02 00 00 	mov    ebx,DWORD PTR [r9+0x2bf]
    1405:	41 8b 99 c0 02 00 00 	mov    ebx,DWORD PTR [r9+0x2c0]
    140c:	41 8b 99 c1 02 00 00 	mov    ebx,DWORD PTR [r9+0x2c1]
    1413:	41 8b 99 c2 02 00 00 	mov    ebx,DWORD PTR [r9+0x2c2]
    141a:	41 8b 99 c3 02 00 00 	mov    ebx,DWORD PTR [r9+0x2c3]
    1421:	41 8b 99 c4 02 00 00 	mov    ebx,DWORD PTR [r9+0x2c4]
    1428:	41 8b 99 c5 02 00 00 	mov    ebx,DWORD PTR [r9+0x2c5]
    142f:	41 8b 99 c6 02 00 00 	mov    ebx,DWORD PTR [r9+0x2c6]
    1436:	41 8b 99 c7 02 00 00 	mov    ebx,DWORD PTR [r9+0x2c7]
    143d:	41 8b 99 c8 02 00 00 	mov    ebx,DWORD PTR [r9+0x2c8]
    1444:	48 8b 12             	mov    rdx,QWORD PTR [rdx]
    1447:	41 8b 99 c9 02 00 00 	mov    ebx,DWORD PTR [r9+0x2c9]
    144e:	41 8b 99 ca 02 00 00 	mov    ebx,DWORD PTR [r9+0x2ca]
    1455:	41 8b 99 cb 02 00 00 	mov    ebx,DWORD PTR [r9+0x2cb]
    145c:	41 8b 99 cc 02 00 00 	mov    ebx,DWORD PTR [r9+0x2cc]
    1463:	41 8b 99 cd 02 00 00 	mov    ebx,DWORD PTR [r9+0x2cd]
    146a:	41 8b 99 ce 02 00 00 	mov    ebx,DWORD PTR [r9+0x2ce]
    1471:	41 8b 99 cf 02 00 00 	mov    ebx,DWORD PTR [r9+0x2cf]
    1478:	41 8b 99 d0 02 00 00 	mov    ebx,DWORD PTR [r9+0x2d0]
    147f:	41 8b 99 d1 02 00 00 	mov    ebx,DWORD PTR [r9+0x2d1]
    1486:	41 8b 99 d2 02 00 00 	mov    ebx,DWORD PTR [r9+0x2d2]
    148d:	41 8b 99 d3 02 00 00 	mov    ebx,DWORD PTR [r9+0x2d3]
    1494:	41 8b 99 d4 02 00 00 	mov    ebx,DWORD PTR [r9+0x2d4]
    149b:	41 8b 99 d5 02 00 00 	mov    ebx,DWORD PTR [r9+0x2d5]
    14a2:	41 8b 99 d6 02 00 00 	mov    ebx,DWORD PTR [r9+0x2d6]
    14a9:	41 8b 99 d7 02 00 00 	mov    ebx,DWORD PTR [r9+0x2d7]
    14b0:	41 8b 99 d8 02 00 00 	mov    ebx,DWORD PTR [r9+0x2d8]
    14b7:	41 8b 99 d9 02 00 00 	mov    ebx,DWORD PTR [r9+0x2d9]
    14be:	41 8b 99 da 02 00 00 	mov    ebx,DWORD PTR [r9+0x2da]
    14c5:	41 8b 99 db 02 00 00 	mov    ebx,DWORD PTR [r9+0x2db]
    14cc:	41 8b 99 dc 02 00 00 	mov    ebx,DWORD PTR [r9+0x2dc]
    14d3:	41 8b 99 dd 02 00 00 	mov    ebx,DWORD PTR [r9+0x2dd]
    14da:	41 8b 99 de 02 00 00 	mov    ebx,DWORD PTR [r9+0x2de]
    14e1:	41 8b 99 df 02 00 00 	mov    ebx,DWORD PTR [r9+0x2df]
    14e8:	41 8b 99 e0 02 00 00 	mov    ebx,DWORD PTR [r9+0x2e0]
    14ef:	41 8b 99 e1 02 00 00 	mov    ebx,DWORD PTR [r9+0x2e1]
    14f6:	41 8b 99 e2 02 00 00 	mov    ebx,DWORD PTR [r9+0x2e2]
    14fd:	41 8b 99 e3 02 00 00 	mov    ebx,DWORD PTR [r9+0x2e3]
    1504:	41 8b 99 e4 02 00 00 	mov    ebx,DWORD PTR [r9+0x2e4]
    150b:	41 8b 99 e5 02 00 00 	mov    ebx,DWORD PTR [r9+0x2e5]
    1512:	41 8b 99 e6 02 00 00 	mov    ebx,DWORD PTR [r9+0x2e6]
    1519:	41 8b 99 e7 02 00 00 	mov    ebx,DWORD PTR [r9+0x2e7]
    1520:	48 8b 09             	mov    rcx,QWORD PTR [rcx]
    1523:	41 8b 99 e8 02 00 00 	mov    ebx,DWORD PTR [r9+0x2e8]
    152a:	41 8b 99 e9 02 00 00 	mov    ebx,DWORD PTR [r9+0x2e9]
    1531:	41 8b 99 ea 02 00 00 	mov    ebx,DWORD PTR [r9+0x2ea]
    1538:	41 8b 99 eb 02 00 00 	mov    ebx,DWORD PTR [r9+0x2eb]
    153f:	41 8b 99 ec 02 00 00 	mov    ebx,DWORD PTR [r9+0x2ec]
    1546:	41 8b 99 ed 02 00 00 	mov    ebx,DWORD PTR [r9+0x2ed]
    154d:	41 8b 99 ee 02 00 00 	mov    ebx,DWORD PTR [r9+0x2ee]
    1554:	41 8b 99 ef 02 00 00 	mov    ebx,DWORD PTR [r9+0x2ef]
    155b:	41 8b 99 f0 02 00 00 	mov    ebx,DWORD PTR [r9+0x2f0]
    1562:	41 8b 99 f1 02 00 00 	mov    ebx,DWORD PTR [r9+0x2f1]
    1569:	41 8b 99 f2 02 00 00 	mov    ebx,DWORD PTR [r9+0x2f2]
    1570:	41 8b 99 f3 02 00 00 	mov    ebx,DWORD PTR [r9+0x2f3]
    1577:	41 8b 99 f4 02 00 00 	mov    ebx,DWORD PTR [r9+0x2f4]
    157e:	41 8b 99 f5 02 00 00 	mov    ebx,DWORD PTR [r9+0x2f5]
    1585:	41 8b 99 f6 02 00 00 	mov    ebx,DWORD PTR [r9+0x2f6]
    158c:	41 8b 99 f7 02 00 00 	mov    ebx,DWORD PTR [r9+0x2f7]
    1593:	41 8b 99 f8 02 00 00 	mov    ebx,DWORD PTR [r9+0x2f8]
    159a:	41 8b 99 f9 02 00 00 	mov    ebx,DWORD PTR [r9+0x2f9]
    15a1:	41 8b 99 fa 02 00 00 	mov    ebx,DWORD PTR [r9+0x2fa]
    15a8:	41 8b 99 fb 02 00 00 	mov    ebx,DWORD PTR [r9+0x2fb]
    15af:	41 8b 99 fc 02 00 00 	mov    ebx,DWORD PTR [r9+0x2fc]
    15b6:	41 8b 99 fd 02 00 00 	mov    ebx,DWORD PTR [r9+0x2fd]
    15bd:	41 8b 99 fe 02 00 00 	mov    ebx,DWORD PTR [r9+0x2fe]
    15c4:	41 8b 99 ff 02 00 00 	mov    ebx,DWORD PTR [r9+0x2ff]
    15cb:	41 8b 99 00 03 00 00 	mov    ebx,DWORD PTR [r9+0x300]
    15d2:	41 8b 99 01 03 00 00 	mov    ebx,DWORD PTR [r9+0x301]
    15d9:	41 8b 99 02 03 00 00 	mov    ebx,DWORD PTR [r9+0x302]
    15e0:	41 8b 99 03 03 00 00 	mov    ebx,DWORD PTR [r9+0x303]
    15e7:	41 8b 99 04 03 00 00 	mov    ebx,DWORD PTR [r9+0x304]
    15ee:	41 8b 99 05 03 00 00 	mov    ebx,DWORD PTR [r9+0x305]
    15f5:	41 8b 99 06 03 00 00 	mov    ebx,DWORD PTR [r9+0x306]
    15fc:	48 8b 12             	mov    rdx,QWORD PTR [rdx]
    15ff:	41 8b 99 07 03 00 00 	mov    ebx,DWORD PTR [r9+0x307]
    1606:	41 8b 99 08 03 00 00 	mov    ebx,DWORD PTR [r9+0x308]
    160d:	41 8b 99 09 03 00 00 	mov    ebx,DWORD PTR [r9+0x309]
    1614:	41 8b 99 0a 03 00 00 	mov    ebx,DWORD PTR [r9+0x30a]
    161b:	41 8b 99 0b 03 00 00 	mov    ebx,DWORD PTR [r9+0x30b]
    1622:	41 8b 99 0c 03 00 00 	mov    ebx,DWORD PTR [r9+0x30c]
    1629:	41 8b 99 0d 03 00 00 	mov    ebx,DWORD PTR [r9+0x30d]
    1630:	41 8b 99 0e 03 00 00 	mov    ebx,DWORD PTR [r9+0x30e]
    1637:	41 8b 99 0f 03 00 00 	mov    ebx,DWORD PTR [r9+0x30f]
    163e:	41 8b 99 10 03 00 00 	mov    ebx,DWORD PTR [r9+0x310]
    1645:	41 8b 99 11 03 00 00 	mov    ebx,DWORD PTR [r9+0x311]
    164c:	41 8b 99 12 03 00 00 	mov    ebx,DWORD PTR [r9+0x312]
    1653:	41 8b 99 13 03 00 00 	mov    ebx,DWORD PTR [r9+0x313]
    165a:	41 8b 99 14 03 00 00 	mov    ebx,DWORD PTR [r9+0x314]
    1661:	41 8b 99 15 03 00 00 	mov    ebx,DWORD PTR [r9+0x315]
    1668:	41 8b 99 16 03 00 00 	mov    ebx,DWORD PTR [r9+0x316]
    166f:	41 8b 99 17 03 00 00 	mov    ebx,DWORD PTR [r9+0x317]
    1676:	41 8b 99 18 03 00 00 	mov    ebx,DWORD PTR [r9+0x318]
    167d:	41 8b 99 19 03 00 00 	mov    ebx,DWORD PTR [r9+0x319]
    1684:	41 8b 99 1a 03 00 00 	mov    ebx,DWORD PTR [r9+0x31a]
    168b:	41 8b 99 1b 03 00 00 	mov    ebx,DWORD PTR [r9+0x31b]
    1692:	41 8b 99 1c 03 00 00 	mov    ebx,DWORD PTR [r9+0x31c]
    1699:	41 8b 99 1d 03 00 00 	mov    ebx,DWORD PTR [r9+0x31d]
    16a0:	41 8b 99 1e 03 00 00 	mov    ebx,DWORD PTR [r9+0x31e]
    16a7:	41 8b 99 1f 03 00 00 	mov    ebx,DWORD PTR [r9+0x31f]
    16ae:	41 8b 99 20 03 00 00 	mov    ebx,DWORD PTR [r9+0x320]
    16b5:	41 8b 99 21 03 00 00 	mov    ebx,DWORD PTR [r9+0x321]
    16bc:	41 8b 99 22 03 00 00 	mov    ebx,DWORD PTR [r9+0x322]
    16c3:	41 8b 99 23 03 00 00 	mov    ebx,DWORD PTR [r9+0x323]
    16ca:	41 8b 99 24 03 00 00 	mov    ebx,DWORD PTR [r9+0x324]
    16d1:	41 8b 99 25 03 00 00 	mov    ebx,DWORD PTR [r9+0x325]
    16d8:	48 8b 09             	mov    rcx,QWORD PTR [rcx]
    16db:	41 8b 99 26 03 00 00 	mov    ebx,DWORD PTR [r9+0x326]
    16e2:	41 8b 99 27 03 00 00 	mov    ebx,DWORD PTR [r9+0x327]
    16e9:	41 8b 99 28 03 00 00 	mov    ebx,DWORD PTR [r9+0x328]
    16f0:	41 8b 99 29 03 00 00 	mov    ebx,DWORD PTR [r9+0x329]
    16f7:	41 8b 99 2a 03 00 00 	mov    ebx,DWORD PTR [r9+0x32a]
    16fe:	41 8b 99 2b 03 00 00 	mov    ebx,DWORD PTR [r9+0x32b]
    1705:	41 8b 99 2c 03 00 00 	mov    ebx,DWORD PTR [r9+0x32c]
    170c:	41 8b 99 2d 03 00 00 	mov    ebx,DWORD PTR [r9+0x32d]
    1713:	41 8b 99 2e 03 00 00 	mov    ebx,DWORD PTR [r9+0x32e]
    171a:	41 8b 99 2f 03 00 00 	mov    ebx,DWORD PTR [r9+0x32f]
    1721:	41 8b 99 30 03 00 00 	mov    ebx,DWORD PTR [r9+0x330]
    1728:	41 8b 99 31 03 00 00 	mov    ebx,DWORD PTR [r9+0x331]
    172f:	41 8b 99 32 03 00 00 	mov    ebx,DWORD PTR [r9+0x332]
    1736:	41 8b 99 33 03 00 00 	mov    ebx,DWORD PTR [r9+0x333]
    173d:	41 8b 99 34 03 00 00 	mov    ebx,DWORD PTR [r9+0x334]
    1744:	41 8b 99 35 03 00 00 	mov    ebx,DWORD PTR [r9+0x335]
    174b:	41 8b 99 36 03 00 00 	mov    ebx,DWORD PTR [r9+0x336]
    1752:	41 8b 99 37 03 00 00 	mov    ebx,DWORD PTR [r9+0x337]
    1759:	41 8b 99 38 03 00 00 	mov    ebx,DWORD PTR [r9+0x338]
    1760:	41 8b 99 39 03 00 00 	mov    ebx,DWORD PTR [r9+0x339]
    1767:	41 8b 99 3a 03 00 00 	mov    ebx,DWORD PTR [r9+0x33a]
    176e:	41 8b 99 3b 03 00 00 	mov    ebx,DWORD PTR [r9+0x33b]
    1775:	41 8b 99 3c 03 00 00 	mov    ebx,DWORD PTR [r9+0x33c]
    177c:	41 8b 99 3d 03 00 00 	mov    ebx,DWORD PTR [r9+0x33d]
    1783:	41 8b 99 3e 03 00 00 	mov    ebx,DWORD PTR [r9+0x33e]
    178a:	41 8b 99 3f 03 00 00 	mov    ebx,DWORD PTR [r9+0x33f]
    1791:	41 8b 99 40 03 00 00 	mov    ebx,DWORD PTR [r9+0x340]
    1798:	41 8b 99 41 03 00 00 	mov    ebx,DWORD PTR [r9+0x341]
    179f:	41 8b 99 42 03 00 00 	mov    ebx,DWORD PTR [r9+0x342]
    17a6:	41 8b 99 43 03 00 00 	mov    ebx,DWORD PTR [r9+0x343]
    17ad:	41 8b 99 44 03 00 00 	mov    ebx,DWORD PTR [r9+0x344]
    17b4:	48 8b 12             	mov    rdx,QWORD PTR [rdx]
    17b7:	41 8b 99 45 03 00 00 	mov    ebx,DWORD PTR [r9+0x345]
    17be:	41 8b 99 46 03 00 00 	mov    ebx,DWORD PTR [r9+0x346]
    17c5:	41 8b 99 47 03 00 00 	mov    ebx,DWORD PTR [r9+0x347]
    17cc:	41 8b 99 48 03 00 00 	mov    ebx,DWORD PTR [r9+0x348]
    17d3:	41 8b 99 49 03 00 00 	mov    ebx,DWORD PTR [r9+0x349]
    17da:	41 8b 99 4a 03 00 00 	mov    ebx,DWORD PTR [r9+0x34a]
    17e1:	41 8b 99 4b 03 00 00 	mov    ebx,DWORD PTR [r9+0x34b]
    17e8:	41 8b 99 4c 03 00 00 	mov    ebx,DWORD PTR [r9+0x34c]
    17ef:	41 8b 99 4d 03 00 00 	mov    ebx,DWORD PTR [r9+0x34d]
    17f6:	41 8b 99 4e 03 00 00 	mov    ebx,DWORD PTR [r9+0x34e]
    17fd:	41 8b 99 4f 03 00 00 	mov    ebx,DWORD PTR [r9+0x34f]
    1804:	41 8b 99 50 03 00 00 	mov    ebx,DWORD PTR [r9+0x350]
    180b:	41 8b 99 51 03 00 00 	mov    ebx,DWORD PTR [r9+0x351]
    1812:	41 8b 99 52 03 00 00 	mov    ebx,DWORD PTR [r9+0x352]
    1819:	41 8b 99 53 03 00 00 	mov    ebx,DWORD PTR [r9+0x353]
    1820:	41 8b 99 54 03 00 00 	mov    ebx,DWORD PTR [r9+0x354]
    1827:	41 8b 99 55 03 00 00 	mov    ebx,DWORD PTR [r9+0x355]
    182e:	41 8b 99 56 03 00 00 	mov    ebx,DWORD PTR [r9+0x356]
    1835:	41 8b 99 57 03 00 00 	mov    ebx,DWORD PTR [r9+0x357]
    183c:	41 8b 99 58 03 00 00 	mov    ebx,DWORD PTR [r9+0x358]
    1843:	41 8b 99 59 03 00 00 	mov    ebx,DWORD PTR [r9+0x359]
    184a:	41 8b 99 5a 03 00 00 	mov    ebx,DWORD PTR [r9+0x35a]
    1851:	41 8b 99 5b 03 00 00 	mov    ebx,DWORD PTR [r9+0x35b]
    1858:	41 8b 99 5c 03 00 00 	mov    ebx,DWORD PTR [r9+0x35c]
    185f:	41 8b 99 5d 03 00 00 	mov    ebx,DWORD PTR [r9+0x35d]
    1866:	41 8b 99 5e 03 00 00 	mov    ebx,DWORD PTR [r9+0x35e]
    186d:	41 8b 99 5f 03 00 00 	mov    ebx,DWORD PTR [r9+0x35f]
    1874:	41 8b 99 60 03 00 00 	mov    ebx,DWORD PTR [r9+0x360]
    187b:	41 8b 99 61 03 00 00 	mov    ebx,DWORD PTR [r9+0x361]
    1882:	41 8b 99 62 03 00 00 	mov    ebx,DWORD PTR [r9+0x362]
    1889:	41 8b 99 63 03 00 00 	mov    ebx,DWORD PTR [r9+0x363]
    1890:	48 8b 09             	mov    rcx,QWORD PTR [rcx]
    1893:	41 8b 99 64 03 00 00 	mov    ebx,DWORD PTR [r9+0x364]
    189a:	41 8b 99 65 03 00 00 	mov    ebx,DWORD PTR [r9+0x365]
    18a1:	41 8b 99 66 03 00 00 	mov    ebx,DWORD PTR [r9+0x366]
    18a8:	41 8b 99 67 03 00 00 	mov    ebx,DWORD PTR [r9+0x367]
    18af:	41 8b 99 68 03 00 00 	mov    ebx,DWORD PTR [r9+0x368]
    18b6:	41 8b 99 69 03 00 00 	mov    ebx,DWORD PTR [r9+0x369]
    18bd:	41 8b 99 6a 03 00 00 	mov    ebx,DWORD PTR [r9+0x36a]
    18c4:	41 8b 99 6b 03 00 00 	mov    ebx,DWORD PTR [r9+0x36b]
    18cb:	41 8b 99 6c 03 00 00 	mov    ebx,DWORD PTR [r9+0x36c]
    18d2:	41 8b 99 6d 03 00 00 	mov    ebx,DWORD PTR [r9+0x36d]
    18d9:	41 8b 99 6e 03 00 00 	mov    ebx,DWORD PTR [r9+0x36e]
    18e0:	41 8b 99 6f 03 00 00 	mov    ebx,DWORD PTR [r9+0x36f]
    18e7:	41 8b 99 70 03 00 00 	mov    ebx,DWORD PTR [r9+0x370]
    18ee:	41 8b 99 71 03 00 00 	mov    ebx,DWORD PTR [r9+0x371]
    18f5:	41 8b 99 72 03 00 00 	mov    ebx,DWORD PTR [r9+0x372]
    18fc:	41 8b 99 73 03 00 00 	mov    ebx,DWORD PTR [r9+0x373]
    1903:	41 8b 99 74 03 00 00 	mov    ebx,DWORD PTR [r9+0x374]
    190a:	41 8b 99 75 03 00 00 	mov    ebx,DWORD PTR [r9+0x375]
    1911:	41 8b 99 76 03 00 00 	mov    ebx,DWORD PTR [r9+0x376]
    1918:	41 8b 99 77 03 00 00 	mov    ebx,DWORD PTR [r9+0x377]
    191f:	41 8b 99 78 03 00 00 	mov    ebx,DWORD PTR [r9+0x378]
    1926:	41 8b 99 79 03 00 00 	mov    ebx,DWORD PTR [r9+0x379]
    192d:	41 8b 99 7a 03 00 00 	mov    ebx,DWORD PTR [r9+0x37a]
    1934:	41 8b 99 7b 03 00 00 	mov    ebx,DWORD PTR [r9+0x37b]
    193b:	41 8b 99 7c 03 00 00 	mov    ebx,DWORD PTR [r9+0x37c]
    1942:	41 8b 99 7d 03 00 00 	mov    ebx,DWORD PTR [r9+0x37d]
    1949:	41 8b 99 7e 03 00 00 	mov    ebx,DWORD PTR [r9+0x37e]
    1950:	41 8b 99 7f 03 00 00 	mov    ebx,DWORD PTR [r9+0x37f]
    1957:	41 8b 99 80 03 00 00 	mov    ebx,DWORD PTR [r9+0x380]
    195e:	41 8b 99 81 03 00 00 	mov    ebx,DWORD PTR [r9+0x381]
    1965:	41 8b 99 82 03 00 00 	mov    ebx,DWORD PTR [r9+0x382]
    196c:	48 8b 12             	mov    rdx,QWORD PTR [rdx]
    196f:	41 8b 99 83 03 00 00 	mov    ebx,DWORD PTR [r9+0x383]
    1976:	41 8b 99 84 03 00 00 	mov    ebx,DWORD PTR [r9+0x384]
    197d:	41 8b 99 85 03 00 00 	mov    ebx,DWORD PTR [r9+0x385]
    1984:	41 8b 99 86 03 00 00 	mov    ebx,DWORD PTR [r9+0x386]
    198b:	41 8b 99 87 03 00 00 	mov    ebx,DWORD PTR [r9+0x387]
    1992:	41 8b 99 88 03 00 00 	mov    ebx,DWORD PTR [r9+0x388]
    1999:	41 8b 99 89 03 00 00 	mov    ebx,DWORD PTR [r9+0x389]
    19a0:	41 8b 99 8a 03 00 00 	mov    ebx,DWORD PTR [r9+0x38a]
    19a7:	41 8b 99 8b 03 00 00 	mov    ebx,DWORD PTR [r9+0x38b]
    19ae:	41 8b 99 8c 03 00 00 	mov    ebx,DWORD PTR [r9+0x38c]
    19b5:	41 8b 99 8d 03 00 00 	mov    ebx,DWORD PTR [r9+0x38d]
    19bc:	41 8b 99 8e 03 00 00 	mov    ebx,DWORD PTR [r9+0x38e]
    19c3:	41 8b 99 8f 03 00 00 	mov    ebx,DWORD PTR [r9+0x38f]
    19ca:	41 8b 99 90 03 00 00 	mov    ebx,DWORD PTR [r9+0x390]
    19d1:	41 8b 99 91 03 00 00 	mov    ebx,DWORD PTR [r9+0x391]
    19d8:	41 8b 99 92 03 00 00 	mov    ebx,DWORD PTR [r9+0x392]
    19df:	41 8b 99 93 03 00 00 	mov    ebx,DWORD PTR [r9+0x393]
    19e6:	41 8b 99 94 03 00 00 	mov    ebx,DWORD PTR [r9+0x394]
    19ed:	41 8b 99 95 03 00 00 	mov    ebx,DWORD PTR [r9+0x395]
    19f4:	41 8b 99 96 03 00 00 	mov    ebx,DWORD PTR [r9+0x396]
    19fb:	41 8b 99 97 03 00 00 	mov    ebx,DWORD PTR [r9+0x397]
    1a02:	41 8b 99 98 03 00 00 	mov    ebx,DWORD PTR [r9+0x398]
    1a09:	41 8b 99 99 03 00 00 	mov    ebx,DWORD PTR [r9+0x399]
    1a10:	41 8b 99 9a 03 00 00 	mov    ebx,DWORD PTR [r9+0x39a]
    1a17:	41 8b 99 9b 03 00 00 	mov    ebx,DWORD PTR [r9+0x39b]
    1a1e:	41 8b 99 9c 03 00 00 	mov    ebx,DWORD PTR [r9+0x39c]
    1a25:	41 8b 99 9d 03 00 00 	mov    ebx,DWORD PTR [r9+0x39d]
    1a2c:	41 8b 99 9e 03 00 00 	mov    ebx,DWORD PTR [r9+0x39e]
    1a33:	41 8b 99 9f 03 00 00 	mov    ebx,DWORD PTR [r9+0x39f]
    1a3a:	41 8b 99 a0 03 00 00 	mov    ebx,DWORD PTR [r9+0x3a0]
    1a41:	41 8b 99 a1 03 00 00 	mov    ebx,DWORD PTR [r9+0x3a1]
    1a48:	48 8b 09             	mov    rcx,QWORD PTR [rcx]
    1a4b:	41 8b 99 a2 03 00 00 	mov    ebx,DWORD PTR [r9+0x3a2]
    1a52:	41 8b 99 a3 03 00 00 	mov    ebx,DWORD PTR [r9+0x3a3]
    1a59:	41 8b 99 a4 03 00 00 	mov    ebx,DWORD PTR [r9+0x3a4]
    1a60:	41 8b 99 a5 03 00 00 	mov    ebx,DWORD PTR [r9+0x3a5]
    1a67:	41 8b 99 a6 03 00 00 	mov    ebx,DWORD PTR [r9+0x3a6]
    1a6e:	41 8b 99 a7 03 00 00 	mov    ebx,DWORD PTR [r9+0x3a7]
    1a75:	41 8b 99 a8 03 00 00 	mov    ebx,DWORD PTR [r9+0x3a8]
    1a7c:	41 8b 99 a9 03 00 00 	mov    ebx,DWORD PTR [r9+0x3a9]
    1a83:	41 8b 99 aa 03 00 00 	mov    ebx,DWORD PTR [r9+0x3aa]
    1a8a:	41 8b 99 ab 03 00 00 	mov    ebx,DWORD PTR [r9+0x3ab]
    1a91:	41 8b 99 ac 03 00 00 	mov    ebx,DWORD PTR [r9+0x3ac]
    1a98:	41 8b 99 ad 03 00 00 	mov    ebx,DWORD PTR [r9+0x3ad]
    1a9f:	41 8b 99 ae 03 00 00 	mov    ebx,DWORD PTR [r9+0x3ae]
    1aa6:	41 8b 99 af 03 00 00 	mov    ebx,DWORD PTR [r9+0x3af]
    1aad:	41 8b 99 b0 03 00 00 	mov    ebx,DWORD PTR [r9+0x3b0]
    1ab4:	41 8b 99 b1 03 00 00 	mov    ebx,DWORD PTR [r9+0x3b1]
    1abb:	41 8b 99 b2 03 00 00 	mov    ebx,DWORD PTR [r9+0x3b2]
    1ac2:	41 8b 99 b3 03 00 00 	mov    ebx,DWORD PTR [r9+0x3b3]
    1ac9:	41 8b 99 b4 03 00 00 	mov    ebx,DWORD PTR [r9+0x3b4]
    1ad0:	41 8b 99 b5 03 00 00 	mov    ebx,DWORD PTR [r9+0x3b5]
    1ad7:	41 8b 99 b6 03 00 00 	mov    ebx,DWORD PTR [r9+0x3b6]
    1ade:	41 8b 99 b7 03 00 00 	mov    ebx,DWORD PTR [r9+0x3b7]
    1ae5:	41 8b 99 b8 03 00 00 	mov    ebx,DWORD PTR [r9+0x3b8]
    1aec:	41 8b 99 b9 03 00 00 	mov    ebx,DWORD PTR [r9+0x3b9]
    1af3:	41 8b 99 ba 03 00 00 	mov    ebx,DWORD PTR [r9+0x3ba]
    1afa:	41 8b 99 bb 03 00 00 	mov    ebx,DWORD PTR [r9+0x3bb]
    1b01:	41 8b 99 bc 03 00 00 	mov    ebx,DWORD PTR [r9+0x3bc]
    1b08:	41 8b 99 bd 03 00 00 	mov    ebx,DWORD PTR [r9+0x3bd]
    1b0f:	41 8b 99 be 03 00 00 	mov    ebx,DWORD PTR [r9+0x3be]
    1b16:	41 8b 99 bf 03 00 00 	mov    ebx,DWORD PTR [r9+0x3bf]
    1b1d:	41 8b 99 c0 03 00 00 	mov    ebx,DWORD PTR [r9+0x3c0]
    1b24:	48 8b 12             	mov    rdx,QWORD PTR [rdx]
    1b27:	41 8b 99 c1 03 00 00 	mov    ebx,DWORD PTR [r9+0x3c1]
    1b2e:	41 8b 99 c2 03 00 00 	mov    ebx,DWORD PTR [r9+0x3c2]
    1b35:	41 8b 99 c3 03 00 00 	mov    ebx,DWORD PTR [r9+0x3c3]
    1b3c:	41 8b 99 c4 03 00 00 	mov    ebx,DWORD PTR [r9+0x3c4]
    1b43:	41 8b 99 c5 03 00 00 	mov    ebx,DWORD PTR [r9+0x3c5]
    1b4a:	41 8b 99 c6 03 00 00 	mov    ebx,DWORD PTR [r9+0x3c6]
    1b51:	41 8b 99 c7 03 00 00 	mov    ebx,DWORD PTR [r9+0x3c7]
    1b58:	41 8b 99 c8 03 00 00 	mov    ebx,DWORD PTR [r9+0x3c8]
    1b5f:	41 8b 99 c9 03 00 00 	mov    ebx,DWORD PTR [r9+0x3c9]
    1b66:	41 8b 99 ca 03 00 00 	mov    ebx,DWORD PTR [r9+0x3ca]
    1b6d:	41 8b 99 cb 03 00 00 	mov    ebx,DWORD PTR [r9+0x3cb]
    1b74:	41 8b 99 cc 03 00 00 	mov    ebx,DWORD PTR [r9+0x3cc]
    1b7b:	41 8b 99 cd 03 00 00 	mov    ebx,DWORD PTR [r9+0x3cd]
    1b82:	41 8b 99 ce 03 00 00 	mov    ebx,DWORD PTR [r9+0x3ce]
    1b89:	41 8b 99 cf 03 00 00 	mov    ebx,DWORD PTR [r9+0x3cf]
    1b90:	41 8b 99 d0 03 00 00 	mov    ebx,DWORD PTR [r9+0x3d0]
    1b97:	41 8b 99 d1 03 00 00 	mov    ebx,DWORD PTR [r9+0x3d1]
    1b9e:	41 8b 99 d2 03 00 00 	mov    ebx,DWORD PTR [r9+0x3d2]
    1ba5:	41 8b 99 d3 03 00 00 	mov    ebx,DWORD PTR [r9+0x3d3]
    1bac:	41 8b 99 d4 03 00 00 	mov    ebx,DWORD PTR [r9+0x3d4]
    1bb3:	41 8b 99 d5 03 00 00 	mov    ebx,DWORD PTR [r9+0x3d5]
    1bba:	41 8b 99 d6 03 00 00 	mov    ebx,DWORD PTR [r9+0x3d6]
    1bc1:	41 8b 99 d7 03 00 00 	mov    ebx,DWORD PTR [r9+0x3d7]
    1bc8:	41 8b 99 d8 03 00 00 	mov    ebx,DWORD PTR [r9+0x3d8]
    1bcf:	41 8b 99 d9 03 00 00 	mov    ebx,DWORD PTR [r9+0x3d9]
    1bd6:	41 8b 99 da 03 00 00 	mov    ebx,DWORD PTR [r9+0x3da]
    1bdd:	41 8b 99 db 03 00 00 	mov    ebx,DWORD PTR [r9+0x3db]
    1be4:	41 8b 99 dc 03 00 00 	mov    ebx,DWORD PTR [r9+0x3dc]
    1beb:	41 8b 99 dd 03 00 00 	mov    ebx,DWORD PTR [r9+0x3dd]
    1bf2:	41 8b 99 de 03 00 00 	mov    ebx,DWORD PTR [r9+0x3de]
    1bf9:	41 8b 99 df 03 00 00 	mov    ebx,DWORD PTR [r9+0x3df]
    1c00:	48 8b 09             	mov    rcx,QWORD PTR [rcx]
    1c03:	41 8b 99 e0 03 00 00 	mov    ebx,DWORD PTR [r9+0x3e0]
    1c0a:	41 8b 99 e1 03 00 00 	mov    ebx,DWORD PTR [r9+0x3e1]
    1c11:	41 8b 99 e2 03 00 00 	mov    ebx,DWORD PTR [r9+0x3e2]
    1c18:	41 8b 99 e3 03 00 00 	mov    ebx,DWORD PTR [r9+0x3e3]
    1c1f:	41 8b 99 e4 03 00 00 	mov    ebx,DWORD PTR [r9+0x3e4]
    1c26:	41 8b 99 e5 03 00 00 	mov    ebx,DWORD PTR [r9+0x3e5]
    1c2d:	41 8b 99 e6 03 00 00 	mov    ebx,DWORD PTR [r9+0x3e6]
    1c34:	41 8b 99 e7 03 00 00 	mov    ebx,DWORD PTR [r9+0x3e7]
    1c3b:	41 8b 99 e8 03 00 00 	mov    ebx,DWORD PTR [r9+0x3e8]
    1c42:	41 8b 99 e9 03 00 00 	mov    ebx,DWORD PTR [r9+0x3e9]
    1c49:	41 8b 99 ea 03 00 00 	mov    ebx,DWORD PTR [r9+0x3ea]
    1c50:	41 8b 99 eb 03 00 00 	mov    ebx,DWORD PTR [r9+0x3eb]
    1c57:	41 8b 99 ec 03 00 00 	mov    ebx,DWORD PTR [r9+0x3ec]
    1c5e:	41 8b 99 ed 03 00 00 	mov    ebx,DWORD PTR [r9+0x3ed]
    1c65:	41 8b 99 ee 03 00 00 	mov    ebx,DWORD PTR [r9+0x3ee]
    1c6c:	41 8b 99 ef 03 00 00 	mov    ebx,DWORD PTR [r9+0x3ef]
    1c73:	41 8b 99 f0 03 00 00 	mov    ebx,DWORD PTR [r9+0x3f0]
    1c7a:	41 8b 99 f1 03 00 00 	mov    ebx,DWORD PTR [r9+0x3f1]
    1c81:	41 8b 99 f2 03 00 00 	mov    ebx,DWORD PTR [r9+0x3f2]
    1c88:	41 8b 99 f3 03 00 00 	mov    ebx,DWORD PTR [r9+0x3f3]
    1c8f:	41 8b 99 f4 03 00 00 	mov    ebx,DWORD PTR [r9+0x3f4]
    1c96:	41 8b 99 f5 03 00 00 	mov    ebx,DWORD PTR [r9+0x3f5]
    1c9d:	41 8b 99 f6 03 00 00 	mov    ebx,DWORD PTR [r9+0x3f6]
    1ca4:	41 8b 99 f7 03 00 00 	mov    ebx,DWORD PTR [r9+0x3f7]
    1cab:	41 8b 99 f8 03 00 00 	mov    ebx,DWORD PTR [r9+0x3f8]
    1cb2:	41 8b 99 f9 03 00 00 	mov    ebx,DWORD PTR [r9+0x3f9]
    1cb9:	41 8b 99 fa 03 00 00 	mov    ebx,DWORD PTR [r9+0x3fa]
    1cc0:	41 8b 99 fb 03 00 00 	mov    ebx,DWORD PTR [r9+0x3fb]
    1cc7:	41 8b 99 fc 03 00 00 	mov    ebx,DWORD PTR [r9+0x3fc]
    1cce:	41 8b 99 fd 03 00 00 	mov    ebx,DWORD PTR [r9+0x3fd]
    1cd5:	41 8b 99 fe 03 00 00 	mov    ebx,DWORD PTR [r9+0x3fe]
    1cdc:	48 8b 12             	mov    rdx,QWORD PTR [rdx]
    1cdf:	41 8b 99 ff 03 00 00 	mov    ebx,DWORD PTR [r9+0x3ff]
    1ce6:	41 8b 99 00 04 00 00 	mov    ebx,DWORD PTR [r9+0x400]
    1ced:	41 8b 99 01 04 00 00 	mov    ebx,DWORD PTR [r9+0x401]
    1cf4:	41 8b 99 02 04 00 00 	mov    ebx,DWORD PTR [r9+0x402]
    1cfb:	41 8b 99 03 04 00 00 	mov    ebx,DWORD PTR [r9+0x403]
    1d02:	41 8b 99 04 04 00 00 	mov    ebx,DWORD PTR [r9+0x404]
    1d09:	41 8b 99 05 04 00 00 	mov    ebx,DWORD PTR [r9+0x405]
    1d10:	41 8b 99 06 04 00 00 	mov    ebx,DWORD PTR [r9+0x406]
    1d17:	41 8b 99 07 04 00 00 	mov    ebx,DWORD PTR [r9+0x407]
    1d1e:	41 8b 99 08 04 00 00 	mov    ebx,DWORD PTR [r9+0x408]
    1d25:	41 8b 99 09 04 00 00 	mov    ebx,DWORD PTR [r9+0x409]
    1d2c:	41 8b 99 0a 04 00 00 	mov    ebx,DWORD PTR [r9+0x40a]
    1d33:	41 8b 99 0b 04 00 00 	mov    ebx,DWORD PTR [r9+0x40b]
    1d3a:	41 8b 99 0c 04 00 00 	mov    ebx,DWORD PTR [r9+0x40c]
    1d41:	41 8b 99 0d 04 00 00 	mov    ebx,DWORD PTR [r9+0x40d]
    1d48:	41 8b 99 0e 04 00 00 	mov    ebx,DWORD PTR [r9+0x40e]
    1d4f:	41 8b 99 0f 04 00 00 	mov    ebx,DWORD PTR [r9+0x40f]
    1d56:	41 8b 99 10 04 00 00 	mov    ebx,DWORD PTR [r9+0x410]
    1d5d:	41 8b 99 11 04 00 00 	mov    ebx,DWORD PTR [r9+0x411]
    1d64:	41 8b 99 12 04 00 00 	mov    ebx,DWORD PTR [r9+0x412]
    1d6b:	41 8b 99 13 04 00 00 	mov    ebx,DWORD PTR [r9+0x413]
    1d72:	41 8b 99 14 04 00 00 	mov    ebx,DWORD PTR [r9+0x414]
    1d79:	41 8b 99 15 04 00 00 	mov    ebx,DWORD PTR [r9+0x415]
    1d80:	41 8b 99 16 04 00 00 	mov    ebx,DWORD PTR [r9+0x416]
    1d87:	41 8b 99 17 04 00 00 	mov    ebx,DWORD PTR [r9+0x417]
    1d8e:	41 8b 99 18 04 00 00 	mov    ebx,DWORD PTR [r9+0x418]
    1d95:	41 8b 99 19 04 00 00 	mov    ebx,DWORD PTR [r9+0x419]
    1d9c:	41 8b 99 1a 04 00 00 	mov    ebx,DWORD PTR [r9+0x41a]
    1da3:	41 8b 99 1b 04 00 00 	mov    ebx,DWORD PTR [r9+0x41b]
    1daa:	41 8b 99 1c 04 00 00 	mov    ebx,DWORD PTR [r9+0x41c]
    1db1:	41 8b 99 1d 04 00 00 	mov    ebx,DWORD PTR [r9+0x41d]
    1db8:	83 e8 01             	sub    eax,0x1
    1dbb:	0f 85 bf e2 ff ff    	jne    0x80
    1dc1:	66 90                	xchg   ax,ax
    1dc3:	66 90                	xchg   ax,ax
    1dc5:	66 90                	xchg   ax,ax
    1dc7:	66 90                	xchg   ax,ax
    1dc9:	66 90                	xchg   ax,ax
    1dcb:	66 90                	xchg   ax,ax
    1dcd:	66 90                	xchg   ax,ax
    1dcf:	66 90                	xchg   ax,ax
    1dd1:	48 81 c4 84 35 00 00 	add    rsp,0x3584
    1dd8:	41 59                	pop    r9
    1dda:	41 58                	pop    r8
    1ddc:	5f                   	pop    rdi
    1ddd:	5e                   	pop    rsi
    1dde:	5d                   	pop    rbp
    1ddf:	5b                   	pop    rbx
    1de0:	0f 77                	emms   
    1de2:	c3                   	ret    
